(lp0
S'ttttcgacaaaaatggggttgtgtggccattgatcatcgaccagaggctcatacacctcaccccacatatgtttccttgc\ncatagatcacattcttggatttctggtggagaccatttcttggtcaaaaatccgtaggtgttagccttcggtattattga\naaatggtcgttcatggctattttcgacaaaaatgggggttgtgtggccattgatcatcgaccagagctcatacacctcac\ncccacatatgtttccttgccatagatcacattcttggatttctggtggagaccatttcttggtcaaaaatccgtaggtgt\ntagccttcgtattattgaaaatggtcgttcatggctattttcgacaaaaatgggggttgtgtggccattgatcatcgacc\nagaggctcatacacctcaccccacatatgtttccttgccatagatcacattcttggatttctggtggagaccatttcttg\ngtcaaaaatccgta'
p1
aS'tttctggtggagaccatttcttggtcaaaaatccgtaggtgttagccttcggtattattga\naaatggtcgttcatggctattttcgacaaaaatgggggttgtgtggccattgatcatcgaccagagctcatacacctcac\ncccacatatgtttccttgccatagatcacattcttggatttctggtggagaccatttcttggtcaaaaatccgtaggtgt\ntagccttcgtattattgaaaatggtcgttcatggctattttcgacaaaaatgggggttgtgtggccattgatcatcgacc\nagaggctcatacacctcaccccacatatgtttccttgccatagatcacattcttggatttctggtggagaccatttcttg\ngtcaaaaatccgtaggtgttagccttcggtattattgaaaatggtcgttcatggctattttcgacaaaatgggggttgtg\ntggccattgatcatcgaccagaggctcatacac'
p2
aS'ttgtgtggccattgatcatcgaccagagctcatacacctcac\ncccacatatgtttccttgccatagatcacattcttggatttctggtggagaccatttcttggtcaaaaatccgtaggtgt\ntagccttcgtattattgaaaatggtcgttcatggctattttcgacaaaaatgggggttgtgtggccattgatcatcgacc\nagaggctcatacacctcaccccacatatgtttccttgccatagatcacattcttggatttctggtggagaccatttcttg\ngtcaaaaatccgtaggtgttagccttcggtattattgaaaatggtcgttcatggctattttcgacaaaatgggggttgtg\ntggccattgatcatcgaccagaggctcatacacctcaccccacatatgtttccttgccatagatcacattcttggatttc\ntggtggagaccatttcttggtcaaaaatccgtaggtgttagccttcggtatt'
p3
aS'cttggtcaaaaatccgtaggtgt\ntagccttcgtattattgaaaatggtcgttcatggctattttcgacaaaaatgggggttgtgtggccattgatcatcgacc\nagaggctcatacacctcaccccacatatgtttccttgccatagatcacattcttggatttctggtggagaccatttcttg\ngtcaaaaatccgtaggtgttagccttcggtattattgaaaatggtcgttcatggctattttcgacaaaatgggggttgtg\ntggccattgatcatcgaccagaggctcatacacctcaccccacatatgtttccttgccatagatcacattcttggatttc\ntggtggagaccatttcttggtcaaaaatccgtaggtgttagccttcggtattattgaaaatggtcattcatggctatttt\ncgacaaaaatgggggttgtgtggccattgatcatcgaccagaggctcatacacctcaccccacatatgttt'
p4
aS'gacc\nagaggctcatacacctcaccccacatatgtttccttgccatagatcacattcttggatttctggtggagaccatttcttg\ngtcaaaaatccgtaggtgttagccttcggtattattgaaaatggtcgttcatggctattttcgacaaaatgggggttgtg\ntggccattgatcatcgaccagaggctcatacacctcaccccacatatgtttccttgccatagatcacattcttggatttc\ntggtggagaccatttcttggtcaaaaatccgtaggtgttagccttcggtattattgaaaatggtcattcatggctatttt\ncgacaaaaatgggggttgtgtggccattgatcatcgaccagaggctcatacacctcaccccacatatgtttccttgccat\nagatcacattcttggatttctggtggagaccatttcttggtcaaaaatccgtaggtgttagccttcgtattattgaaaat\nggtcgttca'
p5
aS'ggtgttagccttcggtattattgaaaatggtcgttcatggctattttcgacaaaatgggggttgtg\ntggccattgatcatcgaccagaggctcatacacctcaccccacatatgtttccttgccatagatcacattcttggatttc\ntggtggagaccatttcttggtcaaaaatccgtaggtgttagccttcggtattattgaaaatggtcattcatggctatttt\ncgacaaaaatgggggttgtgtggccattgatcatcgaccagaggctcatacacctcaccccacatatgtttccttgccat\nagatcacattcttggatttctggtggagaccatttcttggtcaaaaatccgtaggtgttagccttcgtattattgaaaat\nggtcgttcatggctattttcgacaaaaatgggggttgtgtggccattgatcatcgaccagaggctcatacacctcacccc\nacatatgtttccttgccatagatcacat'
p6
aS'ctcaccccacatatgtttccttgccatagatcacattcttggatttc\ntggtggagaccatttcttggtcaaaaatccgtaggtgttagccttcggtattattgaaaatggtcattcatggctatttt\ncgacaaaaatgggggttgtgtggccattgatcatcgaccagaggctcatacacctcaccccacatatgtttccttgccat\nagatcacattcttggatttctggtggagaccatttcttggtcaaaaatccgtaggtgttagccttcgtattattgaaaat\nggtcgttcatggctattttcgacaaaaatgggggttgtgtggccattgatcatcgaccagaggctcatacacctcacccc\nacatatgtttccttgccatagatcacattcttggatttctggtggagaccatttcttggtcaaaaatccgtaggtgttag\nccttcgtattattgaaaatggtcgttcatggctattttcgacaaaaa'
p7
aS'attgaaaatggtcattcatggctatttt\ncgacaaaaatgggggttgtgtggccattgatcatcgaccagaggctcatacacctcaccccacatatgtttccttgccat\nagatcacattcttggatttctggtggagaccatttcttggtcaaaaatccgtaggtgttagccttcgtattattgaaaat\nggtcgttcatggctattttcgacaaaaatgggggttgtgtggccattgatcatcgaccagaggctcatacacctcacccc\nacatatgtttccttgccatagatcacattcttggatttctggtggagaccatttcttggtcaaaaatccgtaggtgttag\nccttcgtattattgaaaatggtcgttcatggctattttcgacaaaaatgggggttgtgtggccattgatcatcgaccaga\nggctcatacacctcaccccacatatgtttccttgccatagatcacattcttggatttctggtggag'
p8
aS'ccttgccat\nagatcacattcttggatttctggtggagaccatttcttggtcaaaaatccgtaggtgttagccttcgtattattgaaaat\nggtcgttcatggctattttcgacaaaaatgggggttgtgtggccattgatcatcgaccagaggctcatacacctcacccc\nacatatgtttccttgccatagatcacattcttggatttctggtggagaccatttcttggtcaaaaatccgtaggtgttag\nccttcgtattattgaaaatggtcgttcatggctattttcgacaaaaatgggggttgtgtggccattgatcatcgaccaga\nggctcatacacctcaccccacatatgtttccttgccatagatcacattcttggatttctggtggagaccatttcttggtc\naaaaatccgtagtgttagccttcgtattattgaaaatggtcattcatggctattttcggcaaaatgggggttgtgtggcc\nattg'
p9
aS'tggctattttcgacaaaaatgggggttgtgtggccattgatcatcgaccagaggctcatacacctcacccc\nacatatgtttccttgccatagatcacattcttggatttctggtggagaccatttcttggtcaaaaatccgtaggtgttag\nccttcgtattattgaaaatggtcgttcatggctattttcgacaaaaatgggggttgtgtggccattgatcatcgaccaga\nggctcatacacctcaccccacatatgtttccttgccatagatcacattcttggatttctggtggagaccatttcttggtc\naaaaatccgtagtgttagccttcgtattattgaaaatggtcattcatggctattttcggcaaaatgggggttgtgtggcc\nattgatcatcgaccagaggctcatacacctcaccccacatatgtttccttgccatagatcacattcttggatttctggtg\ngagaccatttcttggtcaaaaat'
p10
aS'tcttggatttctggtggagaccatttcttggtcaaaaatccgtaggtgttag\nccttcgtattattgaaaatggtcgttcatggctattttcgacaaaaatgggggttgtgtggccattgatcatcgaccaga\nggctcatacacctcaccccacatatgtttccttgccatagatcacattcttggatttctggtggagaccatttcttggtc\naaaaatccgtagtgttagccttcgtattattgaaaatggtcattcatggctattttcggcaaaatgggggttgtgtggcc\nattgatcatcgaccagaggctcatacacctcaccccacatatgtttccttgccatagatcacattcttggatttctggtg\ngagaccatttcttggtcaaaaatccgtaggtgttagccttcgtattattgaaaatggtcgttcatggctattttcgacaa\naaatgggggttgtgtggccattgatcatcgaccagaggctca'
p11
aS'tgggggttgtgtggccattgatcatcgaccaga\nggctcatacacctcaccccacatatgtttccttgccatagatcacattcttggatttctggtggagaccatttcttggtc\naaaaatccgtagtgttagccttcgtattattgaaaatggtcattcatggctattttcggcaaaatgggggttgtgtggcc\nattgatcatcgaccagaggctcatacacctcaccccacatatgtttccttgccatagatcacattcttggatttctggtg\ngagaccatttcttggtcaaaaatccgtaggtgttagccttcgtattattgaaaatggtcgttcatggctattttcgacaa\naaatgggggttgtgtggccattgatcatcgaccagaggctcatacacctcaccccacatatgtttccttgccatagatca\ncattcttggatttctggtggagaccatttcttggtcaaaaatccgtaggtgttagccttcg'
p12
aS'accatttcttggtc\naaaaatccgtagtgttagccttcgtattattgaaaatggtcattcatggctattttcggcaaaatgggggttgtgtggcc\nattgatcatcgaccagaggctcatacacctcaccccacatatgtttccttgccatagatcacattcttggatttctggtg\ngagaccatttcttggtcaaaaatccgtaggtgttagccttcgtattattgaaaatggtcgttcatggctattttcgacaa\naaatgggggttgtgtggccattgatcatcgaccagaggctcatacacctcaccccacatatgtttccttgccatagatca\ncattcttggatttctggtggagaccatttcttggtcaaaaatccgtaggtgttagccttcggtattattgaaaatggtcg\nttcatggctattttcgacaaaaatgggggttgtgtggccattgatcatcgaccagagctcatacacctcaccccacatat'
p13
aS'atcatcgaccagaggctcatacacctcaccccacatatgtttccttgccatagatcacattcttggatttctggtg\ngagaccatttcttggtcaaaaatccgtaggtgttagccttcgtattattgaaaatggtcgttcatggctattttcgacaa\naaatgggggttgtgtggccattgatcatcgaccagaggctcatacacctcaccccacatatgtttccttgccatagatca\ncattcttggatttctggtggagaccatttcttggtcaaaaatccgtaggtgttagccttcggtattattgaaaatggtcg\nttcatggctattttcgacaaaaatgggggttgtgtggccattgatcatcgaccagagctcatacacctcaccccacatat\ngtttccttgccatagatcacattcttggatttctggtggagaccatttcttggtcaaaatccgtaggtgttagcctctag\ntattattgaaaatggtcg'
p14
aS'ccgtaggtgttagccttcgtattattgaaaatggtcgttcatggctattttcgacaa\naaatgggggttgtgtggccattgatcatcgaccagaggctcatacacctcaccccacatatgtttccttgccatagatca\ncattcttggatttctggtggagaccatttcttggtcaaaaatccgtaggtgttagccttcggtattattgaaaatggtcg\nttcatggctattttcgacaaaaatgggggttgtgtggccattgatcatcgaccagagctcatacacctcaccccacatat\ngtttccttgccatagatcacattcttggatttctggtggagaccatttcttggtcaaaatccgtaggtgttagcctctag\ntattattgaaaatggtcgctcatggctattttcaaggtcgctcatggctattttcataaaaaatgggggttgtgtggcca\ntttatcatcgactagaggctcataaacctcaccccac'
p15
aS'tacacctcaccccacatatgtttccttgccatagatca\ncattcttggatttctggtggagaccatttcttggtcaaaaatccgtaggtgttagccttcggtattattgaaaatggtcg\nttcatggctattttcgacaaaaatgggggttgtgtggccattgatcatcgaccagagctcatacacctcaccccacatat\ngtttccttgccatagatcacattcttggatttctggtggagaccatttcttggtcaaaatccgtaggtgttagcctctag\ntattattgaaaatggtcgctcatggctattttcaaggtcgctcatggctattttcataaaaaatgggggttgtgtggcca\ntttatcatcgactagaggctcataaacctcaccccacatatgtttccttgccatagattacattcttggatttctggtgg\naaccatttcttggttaaaaactcgtacgtgttagccttcggtattattgaaaatgg'
p16
aS'gtattattgaaaatggtcg\nttcatggctattttcgacaaaaatgggggttgtgtggccattgatcatcgaccagagctcatacacctcaccccacatat\ngtttccttgccatagatcacattcttggatttctggtggagaccatttcttggtcaaaatccgtaggtgttagcctctag\ntattattgaaaatggtcgctcatggctattttcaaggtcgctcatggctattttcataaaaaatgggggttgtgtggcca\ntttatcatcgactagaggctcataaacctcaccccacatatgtttccttgccatagattacattcttggatttctggtgg\naaccatttcttggttaaaaactcgtacgtgttagccttcggtattattgaaaatggtcattcatggctattttcggcaaa\natgggggttgtgtggccattgatcgtcgaccagaggctcatacacctcaccccacatatgtttccttgtcataga'
p17
aS'\ngtttccttgccatagatcacattcttggatttctggtggagaccatttcttggtcaaaatccgtaggtgttagcctctag\ntattattgaaaatggtcgctcatggctattttcaaggtcgctcatggctattttcataaaaaatgggggttgtgtggcca\ntttatcatcgactagaggctcataaacctcaccccacatatgtttccttgccatagattacattcttggatttctggtgg\naaccatttcttggttaaaaactcgtacgtgttagccttcggtattattgaaaatggtcattcatggctattttcggcaaa\natgggggttgtgtggccattgatcgtcgaccagaggctcatacacctcaccccacatatgtttccttgtcatagatcaca\nttcttggatttctggtggagaccatttcttggtcaaaaatccgtaggtgttagccttcgatattattgaaaatggtcgtt\ncatggctattttc'
p18
aS'ctcatggctattttcaaggtcgctcatggctattttcataaaaaatgggggttgtgtggcca\ntttatcatcgactagaggctcataaacctcaccccacatatgtttccttgccatagattacattcttggatttctggtgg\naaccatttcttggttaaaaactcgtacgtgttagccttcggtattattgaaaatggtcattcatggctattttcggcaaa\natgggggttgtgtggccattgatcgtcgaccagaggctcatacacctcaccccacatatgtttccttgtcatagatcaca\nttcttggatttctggtggagaccatttcttggtcaaaaatccgtaggtgttagccttcgatattattgaaaatggtcgtt\ncatggctattttcgacaaaaatgggggttgtgtggccattgatcatcgaccagaggctcatacacctcaccccacatatg\ntttccttgccatagatcacattcttggatttc'
p19
aS'atatgtttccttgccatagattacattcttggatttctggtgg\naaccatttcttggttaaaaactcgtacgtgttagccttcggtattattgaaaatggtcattcatggctattttcggcaaa\natgggggttgtgtggccattgatcgtcgaccagaggctcatacacctcaccccacatatgtttccttgtcatagatcaca\nttcttggatttctggtggagaccatttcttggtcaaaaatccgtaggtgttagccttcgatattattgaaaatggtcgtt\ncatggctattttcgacaaaaatgggggttgtgtggccattgatcatcgaccagaggctcatacacctcaccccacatatg\ntttccttgccatagatcacattcttggatttctggtggagaccatttcttggtcaaaaatccgtaggtgttaATGAGACCAGGACACTGGCTAACAGCAGTACCAAGTGTAAGATGGGCAAGTGCAGCACTA'
p20
aS'tcattcatggctattttcggcaaa\natgggggttgtgtggccattgatcgtcgaccagaggctcatacacctcaccccacatatgtttccttgtcatagatcaca\nttcttggatttctggtggagaccatttcttggtcaaaaatccgtaggtgttagccttcgatattattgaaaatggtcgtt\ncatggctattttcgacaaaaatgggggttgtgtggccattgatcatcgaccagaggctcatacacctcaccccacatatg\ntttccttgccatagatcacattcttggatttctggtggagaccatttcttggtcaaaaatccgtaggtgttaATGAGACCAGGACACTGGCTAACAGCAGTACCAAGTGTAAGATGGGCAAGTGCAGCACTAGGACTATTTAGTGCAGGACTAGTAGCACAACTAGCACAAGCACCAGTATTTGTACACTGGACACTATATCTAGCATGCTATCTAGTAGGAGGATGGGAAC'
p21
aS'tcaca\nttcttggatttctggtggagaccatttcttggtcaaaaatccgtaggtgttagccttcgatattattgaaaatggtcgtt\ncatggctattttcgacaaaaatgggggttgtgtggccattgatcatcgaccagaggctcatacacctcaccccacatatg\ntttccttgccatagatcacattcttggatttctggtggagaccatttcttggtcaaaaatccgtaggtgttaATGAGACCAGGACACTGGCTAACAGCAGTACCAAGTGTAAGATGGGCAAGTGCAGCACTAGGACTATTTAGTGCAGGACTAGTAGCACAACTAGCACAAGCACCAGTATTTGTACACTGGACACTATATCTAGCATGCTATCTAGTAGGAGGATGGGAACCAGCATGGGCAGGAATAAGAGCACTAAGAGATAGAACACTAGATGTAGATCTACTAATGATAGTAGCAGCAATAGGAGCAGCAGCAATAGGACAAGTATT'
p22
aS'gacaaaaatgggggttgtgtggccattgatcatcgaccagaggctcatacacctcaccccacatatg\ntttccttgccatagatcacattcttggatttctggtggagaccatttcttggtcaaaaatccgtaggtgttaATGAGACCAGGACACTGGCTAACAGCAGTACCAAGTGTAAGATGGGCAAGTGCAGCACTAGGACTATTTAGTGCAGGACTAGTAGCACAACTAGCACAAGCACCAGTATTTGTACACTGGACACTATATCTAGCATGCTATCTAGTAGGAGGATGGGAACCAGCATGGGCAGGAATAAGAGCACTAAGAGATAGAACACTAGATGTAGATCTACTAATGATAGTAGCAGCAATAGGAGCAGCAGCAATAGGACAAGTATTTGATGGAGCACTACTAATAGTAATATTTGCAACAAGTGGAGCACTAGAAGATGTAGCAACAGCAAGAACAGAAAGAAGTGTAAGAGGACTACTAGATCTA'
p23
aS'tggtggagaccatttcttggtcaaaaatccgtaggtgttaATGAGACCAGGACACTGGCTAACAGCAGTACCAAGTGTAAGATGGGCAAGTGCAGCACTAGGACTATTTAGTGCAGGACTAGTAGCACAACTAGCACAAGCACCAGTATTTGTACACTGGACACTATATCTAGCATGCTATCTAGTAGGAGGATGGGAACCAGCATGGGCAGGAATAAGAGCACTAAGAGATAGAACACTAGATGTAGATCTACTAATGATAGTAGCAGCAATAGGAGCAGCAGCAATAGGACAAGTATTTGATGGAGCACTACTAATAGTAATATTTGCAACAAGTGGAGCACTAGAAGATGTAGCAACAGCAAGAACAGAAAGAAGTGTAAGAGGACTACTAGATCTAGCACCAGAACACGCAGCACTAATAGGAGATGATGGATGCGAAAGAGTAGTAGCAGCAGCAGATCTAAGACCAGGAGATGTAATAGTAGTAAGACCAGGAG'
p24
aS'GGACTATTTAGTGCAGGACTAGTAGCACAACTAGCACAAGCACCAGTATTTGTACACTGGACACTATATCTAGCATGCTATCTAGTAGGAGGATGGGAACCAGCATGGGCAGGAATAAGAGCACTAAGAGATAGAACACTAGATGTAGATCTACTAATGATAGTAGCAGCAATAGGAGCAGCAGCAATAGGACAAGTATTTGATGGAGCACTACTAATAGTAATATTTGCAACAAGTGGAGCACTAGAAGATGTAGCAACAGCAAGAACAGAAAGAAGTGTAAGAGGACTACTAGATCTAGCACCAGAACACGCAGCACTAATAGGAGATGATGGATGCGAAAGAGTAGTAGCAGCAGCAGATCTAAGACCAGGAGATGTAATAGTAGTAAGACCAGGAGAAAGAATAAGTGCAGATGGAACAGTAATAAGAGGAGCAAGTGAAGTAGATCAAAGTAGTATAACAGGAGAACCACTACCAGCAGCAAAAACAGTAGGAGA'
p25
aS'CAGCATGGGCAGGAATAAGAGCACTAAGAGATAGAACACTAGATGTAGATCTACTAATGATAGTAGCAGCAATAGGAGCAGCAGCAATAGGACAAGTATTTGATGGAGCACTACTAATAGTAATATTTGCAACAAGTGGAGCACTAGAAGATGTAGCAACAGCAAGAACAGAAAGAAGTGTAAGAGGACTACTAGATCTAGCACCAGAACACGCAGCACTAATAGGAGATGATGGATGCGAAAGAGTAGTAGCAGCAGCAGATCTAAGACCAGGAGATGTAATAGTAGTAAGACCAGGAGAAAGAATAAGTGCAGATGGAACAGTAATAAGAGGAGCAAGTGAAGTAGATCAAAGTAGTATAACAGGAGAACCACTACCAGCAGCAAAAACAGTAGGAGATGGAGTATTTGCAGGAACACTAAATGGAAGTGGAGCACTAAGAATAGAAGTAACAAGAGAACCAAGTCAAACAGTAGTAGCAAGAATAGTAGCAATGGTA'
p26
aS'TGATGGAGCACTACTAATAGTAATATTTGCAACAAGTGGAGCACTAGAAGATGTAGCAACAGCAAGAACAGAAAGAAGTGTAAGAGGACTACTAGATCTAGCACCAGAACACGCAGCACTAATAGGAGATGATGGATGCGAAAGAGTAGTAGCAGCAGCAGATCTAAGACCAGGAGATGTAATAGTAGTAAGACCAGGAGAAAGAATAAGTGCAGATGGAACAGTAATAAGAGGAGCAAGTGAAGTAGATCAAAGTAGTATAACAGGAGAACCACTACCAGCAGCAAAAACAGTAGGAGATGGAGTATTTGCAGGAACACTAAATGGAAGTGGAGCACTAAGAATAGAAGTAACAAGAGAACCAAGTCAAACAGTAGTAGCAAGAATAGTAGCAATGGTAGCAGAAGCAAGTGCAACAAAAGCAACAACACAACTATTTATAGAAAAAATAGAACAAAGATATAGTGTACTAGTAGTAACAGCAACACTAGCACTACTAA'
p27
aS'GCACCAGAACACGCAGCACTAATAGGAGATGATGGATGCGAAAGAGTAGTAGCAGCAGCAGATCTAAGACCAGGAGATGTAATAGTAGTAAGACCAGGAGAAAGAATAAGTGCAGATGGAACAGTAATAAGAGGAGCAAGTGAAGTAGATCAAAGTAGTATAACAGGAGAACCACTACCAGCAGCAAAAACAGTAGGAGATGGAGTATTTGCAGGAACACTAAATGGAAGTGGAGCACTAAGAATAGAAGTAACAAGAGAACCAAGTCAAACAGTAGTAGCAAGAATAGTAGCAATGGTAGCAGAAGCAAGTGCAACAAAAGCAACAACACAACTATTTATAGAAAAAATAGAACAAAGATATAGTGTACTAGTAGTAACAGCAACACTAGCACTACTAACAGTACCACTACTATTTGGAGCAGATCTAAGAAGTACACTACTAAGAGCAATGACATTTATGATAGTAGCAAGTCCATGCGCAGTAGTACTAGCAACAAT'
p28
aS'AAAGAATAAGTGCAGATGGAACAGTAATAAGAGGAGCAAGTGAAGTAGATCAAAGTAGTATAACAGGAGAACCACTACCAGCAGCAAAAACAGTAGGAGATGGAGTATTTGCAGGAACACTAAATGGAAGTGGAGCACTAAGAATAGAAGTAACAAGAGAACCAAGTCAAACAGTAGTAGCAAGAATAGTAGCAATGGTAGCAGAAGCAAGTGCAACAAAAGCAACAACACAACTATTTATAGAAAAAATAGAACAAAGATATAGTGTACTAGTAGTAACAGCAACACTAGCACTACTAACAGTACCACTACTATTTGGAGCAGATCTAAGAAGTACACTACTAAGAGCAATGACATTTATGATAGTAGCAAGTCCATGCGCAGTAGTACTAGCAACAATGCCACCACTACTAAGTGCAATAGCAAATGCAAGTAGACACGGAGTACTAGTAAAAAGTGCAGTAGCAATGGAAAGACTAGCAGATACAGATGTAGTAGTA'
p29
aS'TGGAGTATTTGCAGGAACACTAAATGGAAGTGGAGCACTAAGAATAGAAGTAACAAGAGAACCAAGTCAAACAGTAGTAGCAAGAATAGTAGCAATGGTAGCAGAAGCAAGTGCAACAAAAGCAACAACACAACTATTTATAGAAAAAATAGAACAAAGATATAGTGTACTAGTAGTAACAGCAACACTAGCACTACTAACAGTACCACTACTATTTGGAGCAGATCTAAGAAGTACACTACTAAGAGCAATGACATTTATGATAGTAGCAAGTCCATGCGCAGTAGTACTAGCAACAATGCCACCACTACTAAGTGCAATAGCAAATGCAAGTAGACACGGAGTACTAGTAAAAAGTGCAGTAGCAATGGAAAGACTAGCAGATACAGATGTAGTAGTACTAGATAAAACAGGAACACTAACAGCAGGACAACCAGTAGTAAGTAGAGTAGTAACACTAGGAGATGATGATGTACTAGGAATGGCAGCAGCAGCAGAAC'
p30
aS'GCAGAAGCAAGTGCAACAAAAGCAACAACACAACTATTTATAGAAAAAATAGAACAAAGATATAGTGTACTAGTAGTAACAGCAACACTAGCACTACTAACAGTACCACTACTATTTGGAGCAGATCTAAGAAGTACACTACTAAGAGCAATGACATTTATGATAGTAGCAAGTCCATGCGCAGTAGTACTAGCAACAATGCCACCACTACTAAGTGCAATAGCAAATGCAAGTAGACACGGAGTACTAGTAAAAAGTGCAGTAGCAATGGAAAGACTAGCAGATACAGATGTAGTAGTACTAGATAAAACAGGAACACTAACAGCAGGACAACCAGTAGTAAGTAGAGTAGTAACACTAGGAGATGATGATGTACTAGGAATGGCAGCAGCAGCAGAACAATTTAGTGAACACCCACTAGGAAGAGCAATAGTAGCAGAAGCAAGAGGAACAGTACCAGATGCAACAGATTTTACAGCACTACCAGGAAGAGGAGTAAG'
p31
aS'CAGTACCACTACTATTTGGAGCAGATCTAAGAAGTACACTACTAAGAGCAATGACATTTATGATAGTAGCAAGTCCATGCGCAGTAGTACTAGCAACAATGCCACCACTACTAAGTGCAATAGCAAATGCAAGTAGACACGGAGTACTAGTAAAAAGTGCAGTAGCAATGGAAAGACTAGCAGATACAGATGTAGTAGTACTAGATAAAACAGGAACACTAACAGCAGGACAACCAGTAGTAAGTAGAGTAGTAACACTAGGAGATGATGATGTACTAGGAATGGCAGCAGCAGCAGAACAATTTAGTGAACACCCACTAGGAAGAGCAATAGTAGCAGAAGCAAGAGGAACAGTACCAGATGCAACAGATTTTACAGCACTACCAGGAAGAGGAGTAAGAGCAAGTGTAGATGGAAGAGTAGTAGATGTAATAAGTCCAAGTGCATATGCAGGAGATGATGCAACAGTAAGAGCACACTGCGCAGCAATGGAAAGTGAA'
p32
aS'GCCACCACTACTAAGTGCAATAGCAAATGCAAGTAGACACGGAGTACTAGTAAAAAGTGCAGTAGCAATGGAAAGACTAGCAGATACAGATGTAGTAGTACTAGATAAAACAGGAACACTAACAGCAGGACAACCAGTAGTAAGTAGAGTAGTAACACTAGGAGATGATGATGTACTAGGAATGGCAGCAGCAGCAGAACAATTTAGTGAACACCCACTAGGAAGAGCAATAGTAGCAGAAGCAAGAGGAACAGTACCAGATGCAACAGATTTTACAGCACTACCAGGAAGAGGAGTAAGAGCAAGTGTAGATGGAAGAGTAGTAGATGTAATAAGTCCAAGTGCATATGCAGGAGATGATGCAACAGTAAGAGCACACTGCGCAGCAATGGAAAGTGAAGGAGCAACAGCAGTAGTAGTACTAGTAGATGCAGTACCAGCAGGAGTAATAGGACTAGTAGATAGACTAAGACCAGATGCAAGAGCAGCAGTAACAAGAC'
p33
aS'CTAGATAAAACAGGAACACTAACAGCAGGACAACCAGTAGTAAGTAGAGTAGTAACACTAGGAGATGATGATGTACTAGGAATGGCAGCAGCAGCAGAACAATTTAGTGAACACCCACTAGGAAGAGCAATAGTAGCAGAAGCAAGAGGAACAGTACCAGATGCAACAGATTTTACAGCACTACCAGGAAGAGGAGTAAGAGCAAGTGTAGATGGAAGAGTAGTAGATGTAATAAGTCCAAGTGCATATGCAGGAGATGATGCAACAGTAAGAGCACACTGCGCAGCAATGGAAAGTGAAGGAGCAACAGCAGTAGTAGTACTAGTAGATGCAGTACCAGCAGGAGTAATAGGACTAGTAGATAGACTAAGACCAGATGCAAGAGCAGCAGTAACAAGACTAGCAGAAGTAACAACACACGTACCAATGCTACTAACAGGAGATAATAGAAGAGCAGCAGAAAGACTAGGAAGAGCAGTAGGAATAGCAGGAGTAAGAGC'
p34
aS'AATTTAGTGAACACCCACTAGGAAGAGCAATAGTAGCAGAAGCAAGAGGAACAGTACCAGATGCAACAGATTTTACAGCACTACCAGGAAGAGGAGTAAGAGCAAGTGTAGATGGAAGAGTAGTAGATGTAATAAGTCCAAGTGCATATGCAGGAGATGATGCAACAGTAAGAGCACACTGCGCAGCAATGGAAAGTGAAGGAGCAACAGCAGTAGTAGTACTAGTAGATGCAGTACCAGCAGGAGTAATAGGACTAGTAGATAGACTAAGACCAGATGCAAGAGCAGCAGTAACAAGACTAGCAGAAGTAACAACACACGTACCAATGCTACTAACAGGAGATAATAGAAGAGCAGCAGAAAGACTAGGAAGAGCAGTAGGAATAGCAGGAGTAAGAGCAGAACTACTACCAGAAGGAAAAGCAGCAGTAGTACAAGATCTACAAAGAGATGGAAGAAGAGTACTAGTAGTAGGAGATGGAGTAAATGATGCACCAGCA'
p35
aS'AGCAAGTGTAGATGGAAGAGTAGTAGATGTAATAAGTCCAAGTGCATATGCAGGAGATGATGCAACAGTAAGAGCACACTGCGCAGCAATGGAAAGTGAAGGAGCAACAGCAGTAGTAGTACTAGTAGATGCAGTACCAGCAGGAGTAATAGGACTAGTAGATAGACTAAGACCAGATGCAAGAGCAGCAGTAACAAGACTAGCAGAAGTAACAACACACGTACCAATGCTACTAACAGGAGATAATAGAAGAGCAGCAGAAAGACTAGGAAGAGCAGTAGGAATAGCAGGAGTAAGAGCAGAACTACTACCAGAAGGAAAAGCAGCAGTAGTACAAGATCTACAAAGAGATGGAAGAAGAGTACTAGTAGTAGGAGATGGAGTAAATGATGCACCAGCAATGGCAGCAGCACACACAAGTATAGCAATGGGAAGAGCAGGAGCAGATCTAACAGTACAAACAGCAGATGTAGTAACAATAAGAGATGAACTAAGTACAA'
p36
aS'GGAGCAACAGCAGTAGTAGTACTAGTAGATGCAGTACCAGCAGGAGTAATAGGACTAGTAGATAGACTAAGACCAGATGCAAGAGCAGCAGTAACAAGACTAGCAGAAGTAACAACACACGTACCAATGCTACTAACAGGAGATAATAGAAGAGCAGCAGAAAGACTAGGAAGAGCAGTAGGAATAGCAGGAGTAAGAGCAGAACTACTACCAGAAGGAAAAGCAGCAGTAGTACAAGATCTACAAAGAGATGGAAGAAGAGTACTAGTAGTAGGAGATGGAGTAAATGATGCACCAGCAATGGCAGCAGCACACACAAGTATAGCAATGGGAAGAGCAGGAGCAGATCTAACAGTACAAACAGCAGATGTAGTAACAATAAGAGATGAACTAAGTACAATACCAACAGTAATAGCACTAGCAAGAAGAGCAAGAAGAGTAATGATAGCAAATCTAGTAATAGCAGGAACAGCAATAACAGGACTAGTAATATGGGATCT'
p37
aS'TAGCAGAAGTAACAACACACGTACCAATGCTACTAACAGGAGATAATAGAAGAGCAGCAGAAAGACTAGGAAGAGCAGTAGGAATAGCAGGAGTAAGAGCAGAACTACTACCAGAAGGAAAAGCAGCAGTAGTACAAGATCTACAAAGAGATGGAAGAAGAGTACTAGTAGTAGGAGATGGAGTAAATGATGCACCAGCAATGGCAGCAGCACACACAAGTATAGCAATGGGAAGAGCAGGAGCAGATCTAACAGTACAAACAGCAGATGTAGTAACAATAAGAGATGAACTAAGTACAATACCAACAGTAATAGCACTAGCAAGAAGAGCAAGAAGAGTAATGATAGCAAATCTAGTAATAGCAGGAACAGCAATAACAGGACTAGTAATATGGGATCTATTTGGACACCTACCACTACCACTAGGAGTAGCAGGACACGAAGGAAGTACAGTACTAGTAGCACTAAATGGACTAAGACTACTAAGTAATAGAGCATGG'
p38
aS'AGAACTACTACCAGAAGGAAAAGCAGCAGTAGTACAAGATCTACAAAGAGATGGAAGAAGAGTACTAGTAGTAGGAGATGGAGTAAATGATGCACCAGCAATGGCAGCAGCACACACAAGTATAGCAATGGGAAGAGCAGGAGCAGATCTAACAGTACAAACAGCAGATGTAGTAACAATAAGAGATGAACTAAGTACAATACCAACAGTAATAGCACTAGCAAGAAGAGCAAGAAGAGTAATGATAGCAAATCTAGTAATAGCAGGAACAGCAATAACAGGACTAGTAATATGGGATCTATTTGGACACCTACCACTACCACTAGGAGTAGCAGGACACGAAGGAAGTACAGTACTAGTAGCACTAAATGGACTAAGACTACTAAGTAATAGAGCATGGACAAGAGAACAAACACAAAATTGCACAAAAACAAGAAAAAGTAGACAAGTATGCGTATGCAGTAGAGGAGTAAGAAGTGGAGGAGGACCAACAgccttcg'
p39
aS'ATGGCAGCAGCACACACAAGTATAGCAATGGGAAGAGCAGGAGCAGATCTAACAGTACAAACAGCAGATGTAGTAACAATAAGAGATGAACTAAGTACAATACCAACAGTAATAGCACTAGCAAGAAGAGCAAGAAGAGTAATGATAGCAAATCTAGTAATAGCAGGAACAGCAATAACAGGACTAGTAATATGGGATCTATTTGGACACCTACCACTACCACTAGGAGTAGCAGGACACGAAGGAAGTACAGTACTAGTAGCACTAAATGGACTAAGACTACTAAGTAATAGAGCATGGACAAGAGAACAAACACAAAATTGCACAAAAACAAGAAAAAGTAGACAAGTATGCGTATGCAGTAGAGGAGTAAGAAGTGGAGGAGGACCAACAgccttcgg\ntattattgaaaatggtcattcatggctattttcgacaaaaatgggggttgtgtggccattgatcatcgaccagaggctca\ntacacctcaccccacat'
p40
aS'TACCAACAGTAATAGCACTAGCAAGAAGAGCAAGAAGAGTAATGATAGCAAATCTAGTAATAGCAGGAACAGCAATAACAGGACTAGTAATATGGGATCTATTTGGACACCTACCACTACCACTAGGAGTAGCAGGACACGAAGGAAGTACAGTACTAGTAGCACTAAATGGACTAAGACTACTAAGTAATAGAGCATGGACAAGAGAACAAACACAAAATTGCACAAAAACAAGAAAAAGTAGACAAGTATGCGTATGCAGTAGAGGAGTAAGAAGTGGAGGAGGACCAACAgccttcgg\ntattattgaaaatggtcattcatggctattttcgacaaaaatgggggttgtgtggccattgatcatcgaccagaggctca\ntacacctcaccccacatatgtttccttgccatagatcacattcttggatttctggtggagaccatttcttggtcaaaaat\nccgtaggtgttagccttcgtattattgaaaatggtc'
p41
aS'ATTTGGACACCTACCACTACCACTAGGAGTAGCAGGACACGAAGGAAGTACAGTACTAGTAGCACTAAATGGACTAAGACTACTAAGTAATAGAGCATGGACAAGAGAACAAACACAAAATTGCACAAAAACAAGAAAAAGTAGACAAGTATGCGTATGCAGTAGAGGAGTAAGAAGTGGAGGAGGACCAACAgccttcgg\ntattattgaaaatggtcattcatggctattttcgacaaaaatgggggttgtgtggccattgatcatcgaccagaggctca\ntacacctcaccccacatatgtttccttgccatagatcacattcttggatttctggtggagaccatttcttggtcaaaaat\nccgtaggtgttagccttcgtattattgaaaatggtcgttcatggctattttcgacaaaaatgggggttgtgtggccattg\natcatcgaccagaggctcatacacctcaccccacatatgtttccttgccatagat'
p42
aS'ACAAGAGAACAAACACAAAATTGCACAAAAACAAGAAAAAGTAGACAAGTATGCGTATGCAGTAGAGGAGTAAGAAGTGGAGGAGGACCAACAgccttcgg\ntattattgaaaatggtcattcatggctattttcgacaaaaatgggggttgtgtggccattgatcatcgaccagaggctca\ntacacctcaccccacatatgtttccttgccatagatcacattcttggatttctggtggagaccatttcttggtcaaaaat\nccgtaggtgttagccttcgtattattgaaaatggtcgttcatggctattttcgacaaaaatgggggttgtgtggccattg\natcatcgaccagaggctcatacacctcaccccacatatgtttccttgccatagatcacattcttggatttctggtggaga\nccatttcttggtcaaaaatccgtaggtgttagccttcgtattattgaaaatggtcgttcatggctattttcgga'
p43
aS'g\ntattattgaaaatggtcattcatggctattttcgacaaaaatgggggttgtgtggccattgatcatcgaccagaggctca\ntacacctcaccccacatatgtttccttgccatagatcacattcttggatttctggtggagaccatttcttggtcaaaaat\nccgtaggtgttagccttcgtattattgaaaatggtcgttcatggctattttcgacaaaaatgggggttgtgtggccattg\natcatcgaccagaggctcatacacctcaccccacatatgtttccttgccatagatcacattcttggatttctggtggaga\nccatttcttggtcaaaaatccgtaggtgttagccttcgtattattgaaaatggtcgttcatggctattttcggacaaaat\ngggggttgtgtggccattgatcatcgaccagaggctcatacacctcaccccacatatgtttccttgccatagatcacatt\ncttggatttctg'
p44
aS'atgtttccttgccatagatcacattcttggatttctggtggagaccatttcttggtcaaaaat\nccgtaggtgttagccttcgtattattgaaaatggtcgttcatggctattttcgacaaaaatgggggttgtgtggccattg\natcatcgaccagaggctcatacacctcaccccacatatgtttccttgccatagatcacattcttggatttctggtggaga\nccatttcttggtcaaaaatccgtaggtgttagccttcgtattattgaaaatggtcgttcatggctattttcggacaaaat\ngggggttgtgtggccattgatcatcgaccagaggctcatacacctcaccccacatatgtttccttgccatagatcacatt\ncttggatttctggtggagaccatttcttggtcaaaaatccgtaggtgttagccttcggtattattgaaaatggtcattca\ntggctattttcgacaaaaatgggggttgtgt'
p45
aS'gttcatggctattttcgacaaaaatgggggttgtgtggccattg\natcatcgaccagaggctcatacacctcaccccacatatgtttccttgccatagatcacattcttggatttctggtggaga\nccatttcttggtcaaaaatccgtaggtgttagccttcgtattattgaaaatggtcgttcatggctattttcggacaaaat\ngggggttgtgtggccattgatcatcgaccagaggctcatacacctcaccccacatatgtttccttgccatagatcacatt\ncttggatttctggtggagaccatttcttggtcaaaaatccgtaggtgttagccttcggtattattgaaaatggtcattca\ntggctattttcgacaaaaatgggggttgtgtggccattgatcatcgaccagaggctcatacacctcaccccacatatgtt\ntccttgccatagatcacattcttggatttctggtggagaccatttcttgg'
p46
aS'cacattcttggatttctggtggaga\nccatttcttggtcaaaaatccgtaggtgttagccttcgtattattgaaaatggtcgttcatggctattttcggacaaaat\ngggggttgtgtggccattgatcatcgaccagaggctcatacacctcaccccacatatgtttccttgccatagatcacatt\ncttggatttctggtggagaccatttcttggtcaaaaatccgtaggtgttagccttcggtattattgaaaatggtcattca\ntggctattttcgacaaaaatgggggttgtgtggccattgatcatcgaccagaggctcatacacctcaccccacatatgtt\ntccttgccatagatcacattcttggatttctggtggagaccatttcttggtcaaaaatccgtaggtgttagccttcgtat\ntattgaaaatggtcgttcatggctattttcgacaaaaatgggggttgtgtggccattgatcatcgacca'
p47
aS'caaaat\ngggggttgtgtggccattgatcatcgaccagaggctcatacacctcaccccacatatgtttccttgccatagatcacatt\ncttggatttctggtggagaccatttcttggtcaaaaatccgtaggtgttagccttcggtattattgaaaatggtcattca\ntggctattttcgacaaaaatgggggttgtgtggccattgatcatcgaccagaggctcatacacctcaccccacatatgtt\ntccttgccatagatcacattcttggatttctggtggagaccatttcttggtcaaaaatccgtaggtgttagccttcgtat\ntattgaaaatggtcgttcatggctattttcgacaaaaatgggggttgtgtggccattgatcatcgaccagaggctcatac\nacctcaccccacatatgtttccttgccatagatcacattcttggatttctggtggagaccatttcttggtcaaaaatccg\ntaggtgt'
p48
aS'gtggagaccatttcttggtcaaaaatccgtaggtgttagccttcggtattattgaaaatggtcattca\ntggctattttcgacaaaaatgggggttgtgtggccattgatcatcgaccagaggctcatacacctcaccccacatatgtt\ntccttgccatagatcacattcttggatttctggtggagaccatttcttggtcaaaaatccgtaggtgttagccttcgtat\ntattgaaaatggtcgttcatggctattttcgacaaaaatgggggttgtgtggccattgatcatcgaccagaggctcatac\nacctcaccccacatatgtttccttgccatagatcacattcttggatttctggtggagaccatttcttggtcaaaaatccg\ntaggtgttagccttcgtattattgaaaatggtcgttcatggctattttcgacaaaaatgggggttgtgtggccattgatc\natcgaccagaggctcatacacctcac'
p49
aS'ggccattgatcatcgaccagaggctcatacacctcaccccacatatgtt\ntccttgccatagatcacattcttggatttctggtggagaccatttcttggtcaaaaatccgtaggtgttagccttcgtat\ntattgaaaatggtcgttcatggctattttcgacaaaaatgggggttgtgtggccattgatcatcgaccagaggctcatac\nacctcaccccacatatgtttccttgccatagatcacattcttggatttctggtggagaccatttcttggtcaaaaatccg\ntaggtgttagccttcgtattattgaaaatggtcgttcatggctattttcgacaaaaatgggggttgtgtggccattgatc\natcgaccagaggctcatacacctcaccccacatatgtttccttgccatagatcacattcttggatttctggtggagacca\ntttcttggtcaaaaatccgtaggtgttagccttcggtattattga'
p50
aS'tcaaaaatccgtaggtgttagccttcgtat\ntattgaaaatggtcgttcatggctattttcgacaaaaatgggggttgtgtggccattgatcatcgaccagaggctcatac\nacctcaccccacatatgtttccttgccatagatcacattcttggatttctggtggagaccatttcttggtcaaaaatccg\ntaggtgttagccttcgtattattgaaaatggtcgttcatggctattttcgacaaaaatgggggttgtgtggccattgatc\natcgaccagaggctcatacacctcaccccacatatgtttccttgccatagatcacattcttggatttctggtggagacca\ntttcttggtcaaaaatccgtaggtgttagccttcggtattattgaaaatggtcgttcatggctattttcgacaaaaatgg\ngggttgtgtggccattgatcatcgaccagaggctcatacacctcaccccacatatgtttccttg'
p51
aS'gaggctcatac\nacctcaccccacatatgtttccttgccatagatcacattcttggatttctggtggagaccatttcttggtcaaaaatccg\ntaggtgttagccttcgtattattgaaaatggtcgttcatggctattttcgacaaaaatgggggttgtgtggccattgatc\natcgaccagaggctcatacacctcaccccacatatgtttccttgccatagatcacattcttggatttctggtggagacca\ntttcttggtcaaaaatccgtaggtgttagccttcggtattattgaaaatggtcgttcatggctattttcgacaaaaatgg\ngggttgtgtggccattgatcatcgaccagaggctcatacacctcaccccacatatgtttccttgccatagatcacattct\ntggatttctggtggagaccatttcttggtcaaaaatccgtaggtgttagccttcgtattattgaaaatggtcgttcatgg\nct'
p52
aS'tagccttcgtattattgaaaatggtcgttcatggctattttcgacaaaaatgggggttgtgtggccattgatc\natcgaccagaggctcatacacctcaccccacatatgtttccttgccatagatcacattcttggatttctggtggagacca\ntttcttggtcaaaaatccgtaggtgttagccttcggtattattgaaaatggtcgttcatggctattttcgacaaaaatgg\ngggttgtgtggccattgatcatcgaccagaggctcatacacctcaccccacatatgtttccttgccatagatcacattct\ntggatttctggtggagaccatttcttggtcaaaaatccgtaggtgttagccttcgtattattgaaaatggtcgttcatgg\nctattttcgacaaaaatgggggttgtgtggccattgatcatcgaccagaggctcatacacctcaccccacatatgtttcc\nttgccatagatcacattcttg'
p53
aS'cccacatatgtttccttgccatagatcacattcttggatttctggtggagacca\ntttcttggtcaaaaatccgtaggtgttagccttcggtattattgaaaatggtcgttcatggctattttcgacaaaaatgg\ngggttgtgtggccattgatcatcgaccagaggctcatacacctcaccccacatatgtttccttgccatagatcacattct\ntggatttctggtggagaccatttcttggtcaaaaatccgtaggtgttagccttcgtattattgaaaatggtcgttcatgg\nctattttcgacaaaaatgggggttgtgtggccattgatcatcgaccagaggctcatacacctcaccccacatatgtttcc\nttgccatagatcacattcttggatttctggtggagaccatttcttggtcaaaaatccgtaggtgttagccttcgtattat\ntgaaaatggtcgttcatggctattttcgacaaaaatgggg'
p54
aS'aaatggtcgttcatggctattttcgacaaaaatgg\ngggttgtgtggccattgatcatcgaccagaggctcatacacctcaccccacatatgtttccttgccatagatcacattct\ntggatttctggtggagaccatttcttggtcaaaaatccgtaggtgttagccttcgtattattgaaaatggtcgttcatgg\nctattttcgacaaaaatgggggttgtgtggccattgatcatcgaccagaggctcatacacctcaccccacatatgtttcc\nttgccatagatcacattcttggatttctggtggagaccatttcttggtcaaaaatccgtaggtgttagccttcgtattat\ntgaaaatggtcgttcatggctattttcgacaaaaatgggggttgtgtggccattgatcatcgaccagaggctcatacacc\ntcaccccacatatgtttccttgccatagatcacattcttggatttctggtggagaccat'
p55
aS'ccatagatcacattct\ntggatttctggtggagaccatttcttggtcaaaaatccgtaggtgttagccttcgtattattgaaaatggtcgttcatgg\nctattttcgacaaaaatgggggttgtgtggccattgatcatcgaccagaggctcatacacctcaccccacatatgtttcc\nttgccatagatcacattcttggatttctggtggagaccatttcttggtcaaaaatccgtaggtgttagccttcgtattat\ntgaaaatggtcgttcatggctattttcgacaaaaatgggggttgtgtggccattgatcatcgaccagaggctcatacacc\ntcaccccacatatgtttccttgccatagatcacattcttggatttctggtggagaccatttcttggtcaaaaatccgtag\ngtgttagccttcggtattattgaaaatggtcattcatggctattttcgacaaaaatgggggttgtgtggccattgatc'
p56
aS'attttcgacaaaaatgggggttgtgtggccattgatcatcgaccagaggctcatacacctcaccccacatatgtttcc\nttgccatagatcacattcttggatttctggtggagaccatttcttggtcaaaaatccgtaggtgttagccttcgtattat\ntgaaaatggtcgttcatggctattttcgacaaaaatgggggttgtgtggccattgatcatcgaccagaggctcatacacc\ntcaccccacatatgtttccttgccatagatcacattcttggatttctggtggagaccatttcttggtcaaaaatccgtag\ngtgttagccttcggtattattgaaaatggtcattcatggctattttcgacaaaaatgggggttgtgtggccattgatcat\ncgaccagaggctcatacacctcaccccacatatgtttccttgccatagatcacattcttggatttctggtggagaccatt\ntcttggtcaaaaatcc'
p57
aS'gatttctggtggagaccatttcttggtcaaaaatccgtaggtgttagccttcgtattat\ntgaaaatggtcgttcatggctattttcgacaaaaatgggggttgtgtggccattgatcatcgaccagaggctcatacacc\ntcaccccacatatgtttccttgccatagatcacattcttggatttctggtggagaccatttcttggtcaaaaatccgtag\ngtgttagccttcggtattattgaaaatggtcattcatggctattttcgacaaaaatgggggttgtgtggccattgatcat\ncgaccagaggctcatacacctcaccccacatatgtttccttgccatagatcacattcttggatttctggtggagaccatt\ntcttggtcaaaaatccgtaggtgttagccttcgtattattgaaaatggtcgttcatggctattttcgacaaaaatggggg\nttgtgtggccattgatcatcgaccagaggctcata'
p58
aS'gttgtgtggccattgatcatcgaccagaggctcatacacc\ntcaccccacatatgtttccttgccatagatcacattcttggatttctggtggagaccatttcttggtcaaaaatccgtag\ngtgttagccttcggtattattgaaaatggtcattcatggctattttcgacaaaaatgggggttgtgtggccattgatcat\ncgaccagaggctcatacacctcaccccacatatgtttccttgccatagatcacattcttggatttctggtggagaccatt\ntcttggtcaaaaatccgtaggtgttagccttcgtattattgaaaatggtcgttcatggctattttcgacaaaaatggggg\nttgtgtggccattgatcatcgaccagaggctcatacacctcaccccacatatgtttccttgccatagatcacattcttgg\natttctggtggagaccatttcttggtcaaaaatccgtaggtgttagccttcgta'
p59
aS'ttcttggtcaaaaatccgtag\ngtgttagccttcggtattattgaaaatggtcattcatggctattttcgacaaaaatgggggttgtgtggccattgatcat\ncgaccagaggctcatacacctcaccccacatatgtttccttgccatagatcacattcttggatttctggtggagaccatt\ntcttggtcaaaaatccgtaggtgttagccttcgtattattgaaaatggtcgttcatggctattttcgacaaaaatggggg\nttgtgtggccattgatcatcgaccagaggctcatacacctcaccccacatatgtttccttgccatagatcacattcttgg\natttctggtggagaccatttcttggtcaaaaatccgtaggtgttagccttcgtattattgaaaatggtcgttcatggcta\nttttcgacaaaaatgggggttgtgtggccattgatcatcgaccagaggctcatacacctcaccccacatatgt'
p60
aS'at\ncgaccagaggctcatacacctcaccccacatatgtttccttgccatagatcacattcttggatttctggtggagaccatt\ntcttggtcaaaaatccgtaggtgttagccttcgtattattgaaaatggtcgttcatggctattttcgacaaaaatggggg\nttgtgtggccattgatcatcgaccagaggctcatacacctcaccccacatatgtttccttgccatagatcacattcttgg\natttctggtggagaccatttcttggtcaaaaatccgtaggtgttagccttcgtattattgaaaatggtcgttcatggcta\nttttcgacaaaaatgggggttgtgtggccattgatcatcgaccagaggctcatacacctcaccccacatatgtttccttg\nccatagatcacattcttggatttctggtggagaccatttcttggtcaaaaatccgtaggtgttagccttcgtattattga\naaatggtcgtt'
p61
aS'gtaggtgttagccttcgtattattgaaaatggtcgttcatggctattttcgacaaaaatggggg\nttgtgtggccattgatcatcgaccagaggctcatacacctcaccccacatatgtttccttgccatagatcacattcttgg\natttctggtggagaccatttcttggtcaaaaatccgtaggtgttagccttcgtattattgaaaatggtcgttcatggcta\nttttcgacaaaaatgggggttgtgtggccattgatcatcgaccagaggctcatacacctcaccccacatatgtttccttg\nccatagatcacattcttggatttctggtggagaccatttcttggtcaaaaatccgtaggtgttagccttcgtattattga\naaatggtcgttcatggctattttcgacaaaaatgggggttgtgtggccattgatcatcgaccagaggctcatacacctca\nccccacatatgtttccttgccatagatcac'
p62
aS'cacctcaccccacatatgtttccttgccatagatcacattcttgg\natttctggtggagaccatttcttggtcaaaaatccgtaggtgttagccttcgtattattgaaaatggtcgttcatggcta\nttttcgacaaaaatgggggttgtgtggccattgatcatcgaccagaggctcatacacctcaccccacatatgtttccttg\nccatagatcacattcttggatttctggtggagaccatttcttggtcaaaaatccgtaggtgttagccttcgtattattga\naaatggtcgttcatggctattttcgacaaaaatgggggttgtgtggccattgatcatcgaccagaggctcatacacctca\nccccacatatgtttccttgccatagatcacattcttggatttctggtggagaccatttcttggtcaaaaatccgtaggtg\nttagccttcggtattattgaaaatggtcgttcatggctattttcgacaa'
p63
aS'ttattgaaaatggtcgttcatggcta\nttttcgacaaaaatgggggttgtgtggccattgatcatcgaccagaggctcatacacctcaccccacatatgtttccttg\nccatagatcacattcttggatttctggtggagaccatttcttggtcaaaaatccgtaggtgttagccttcgtattattga\naaatggtcgttcatggctattttcgacaaaaatgggggttgtgtggccattgatcatcgaccagaggctcatacacctca\nccccacatatgtttccttgccatagatcacattcttggatttctggtggagaccatttcttggtcaaaaatccgtaggtg\nttagccttcggtattattgaaaatggtcgttcatggctattttcgacaaaaatgggggttgtgtggccattgatcatcga\nccagaggctcatacacctcaccccacatatgtttccttgccatagatcacattcttggatttctggtg'
p64
aS'ttccttg\nccatagatcacattcttggatttctggtggagaccatttcttggtcaaaaatccgtaggtgttagccttcgtattattga\naaatggtcgttcatggctattttcgacaaaaatgggggttgtgtggccattgatcatcgaccagaggctcatacacctca\nccccacatatgtttccttgccatagatcacattcttggatttctggtggagaccatttcttggtcaaaaatccgtaggtg\nttagccttcggtattattgaaaatggtcgttcatggctattttcgacaaaaatgggggttgtgtggccattgatcatcga\nccagaggctcatacacctcaccccacatatgtttccttgccatagatcacattcttggatttctggtggagaccatttct\ntggtcaaaaatccgtaggtgttagccttcggtattattgaaaatggtcgttcatggctattttcgacaaaaatgggggtt\ngtgtgg'
p65
aS'catggctattttcgacaaaaatgggggttgtgtggccattgatcatcgaccagaggctcatacacctca\nccccacatatgtttccttgccatagatcacattcttggatttctggtggagaccatttcttggtcaaaaatccgtaggtg\nttagccttcggtattattgaaaatggtcgttcatggctattttcgacaaaaatgggggttgtgtggccattgatcatcga\nccagaggctcatacacctcaccccacatatgtttccttgccatagatcacattcttggatttctggtggagaccatttct\ntggtcaaaaatccgtaggtgttagccttcggtattattgaaaatggtcgttcatggctattttcgacaaaaatgggggtt\ngtgtggccattgatcatcgaccagaggctcatacacctcaccccacatatgtttccttgccatagatcacattcttggat\nttctggtggagaccatttcttggtc'
p66
aS'attcttggatttctggtggagaccatttcttggtcaaaaatccgtaggtg\nttagccttcggtattattgaaaatggtcgttcatggctattttcgacaaaaatgggggttgtgtggccattgatcatcga\nccagaggctcatacacctcaccccacatatgtttccttgccatagatcacattcttggatttctggtggagaccatttct\ntggtcaaaaatccgtaggtgttagccttcggtattattgaaaatggtcgttcatggctattttcgacaaaaatgggggtt\ngtgtggccattgatcatcgaccagaggctcatacacctcaccccacatatgtttccttgccatagatcacattcttggat\nttctggtggagaccatttcttggtcaaaaatccgtaggtgttagccttcggtattattgaaaatggtcgttcatggctat\ntttcgacaaaaatgggggttgtgtggccattgatcatcgaccag'
p67
aS'aaatgggggttgtgtggccattgatcatcga\nccagaggctcatacacctcaccccacatatgtttccttgccatagatcacattcttggatttctggtggagaccatttct\ntggtcaaaaatccgtaggtgttagccttcggtattattgaaaatggtcgttcatggctattttcgacaaaaatgggggtt\ngtgtggccattgatcatcgaccagaggctcatacacctcaccccacatatgtttccttgccatagatcacattcttggat\nttctggtggagaccatttcttggtcaaaaatccgtaggtgttagccttcggtattattgaaaatggtcgttcatggctat\ntttcgacaaaaatgggggttgtgtggccattgatcatcgaccagaggctcatacacctcaccccacatatgtttccttgc\ncatagatcacattcttggatttctggtggagaccatttcttggtcaaaaatccgtaggtgtta'
p68
aS'gagaccatttct\ntggtcaaaaatccgtaggtgttagccttcggtattattgaaaatggtcgttcatggctattttcgacaaaaatgggggtt\ngtgtggccattgatcatcgaccagaggctcatacacctcaccccacatatgtttccttgccatagatcacattcttggat\nttctggtggagaccatttcttggtcaaaaatccgtaggtgttagccttcggtattattgaaaatggtcgttcatggctat\ntttcgacaaaaatgggggttgtgtggccattgatcatcgaccagaggctcatacacctcaccccacatatgtttccttgc\ncatagatcacattcttggatttctggtggagaccatttcttggtcaaaaatccgtaggtgttagccttcgtattattgaa\naatggtcgttcatggctattttcgacaaaaatgggggttgtgtggccattgatcatcgaccagaggctcatacacctcac\nc'
p69
aS'ccattgatcatcgaccagaggctcatacacctcaccccacatatgtttccttgccatagatcacattcttggat\nttctggtggagaccatttcttggtcaaaaatccgtaggtgttagccttcggtattattgaaaatggtcgttcatggctat\ntttcgacaaaaatgggggttgtgtggccattgatcatcgaccagaggctcatacacctcaccccacatatgtttccttgc\ncatagatcacattcttggatttctggtggagaccatttcttggtcaaaaatccgtaggtgttagccttcgtattattgaa\naatggtcgttcatggctattttcgacaaaaatgggggttgtgtggccattgatcatcgaccagaggctcatacacctcac\ncccacatatgtttccttgccatagatcacattcttggatttctggtggagaccatttcttggtcaaaaatccgtaggtgt\ntagccttcggtattattgaa'
p70
aS'aaaaatccgtaggtgttagccttcggtattattgaaaatggtcgttcatggctat\ntttcgacaaaaatgggggttgtgtggccattgatcatcgaccagaggctcatacacctcaccccacatatgtttccttgc\ncatagatcacattcttggatttctggtggagaccatttcttggtcaaaaatccgtaggtgttagccttcgtattattgaa\naatggtcgttcatggctattttcgacaaaaatgggggttgtgtggccattgatcatcgaccagaggctcatacacctcac\ncccacatatgtttccttgccatagatcacattcttggatttctggtggagaccatttcttggtcaaaaatccgtaggtgt\ntagccttcggtattattgaaaatggtcattcatggctattttcgacaaaaatgggggttgtgtggccattgatcatcgac\ncagaggctcatacacctcaccccacatatgtttccttgc'
p71
aS'aggctcatacacctcaccccacatatgtttccttgc\ncatagatcacattcttggatttctggtggagaccatttcttggtcaaaaatccgtaggtgttagccttcgtattattgaa\naatggtcgttcatggctattttcgacaaaaatgggggttgtgtggccattgatcatcgaccagaggctcatacacctcac\ncccacatatgtttccttgccatagatcacattcttggatttctggtggagaccatttcttggtcaaaaatccgtaggtgt\ntagccttcggtattattgaaaatggtcattcatggctattttcgacaaaaatgggggttgtgtggccattgatcatcgac\ncagaggctcatacacctcaccccacatatgtttccttgccatagatcacattcttggatttctggtggagaccatttctt\nggtcaaaaatccgtaggtgttagccttcgtattattgaaaatggtcgttcatggctat'
p72
aS'gccttcgtattattgaa\naatggtcgttcatggctattttcgacaaaaatgggggttgtgtggccattgatcatcgaccagaggctcatacacctcac\ncccacatatgtttccttgccatagatcacattcttggatttctggtggagaccatttcttggtcaaaaatccgtaggtgt\ntagccttcggtattattgaaaatggtcattcatggctattttcgacaaaaatgggggttgtgtggccattgatcatcgac\ncagaggctcatacacctcaccccacatatgtttccttgccatagatcacattcttggatttctggtggagaccatttctt\nggtcaaaaatccgtaggtgttagccttcgtattattgaaaatggtcgttcatggctattttcgacaaaaatgggggttgt\ngtggccattgatcatcgaccagaggctcatacacctcaccccacatatgtttccttgccatagatcacattcttgga'
p73
aS'ccacatatgtttccttgccatagatcacattcttggatttctggtggagaccatttcttggtcaaaaatccgtaggtgt\ntagccttcggtattattgaaaatggtcattcatggctattttcgacaaaaatgggggttgtgtggccattgatcatcgac\ncagaggctcatacacctcaccccacatatgtttccttgccatagatcacattcttggatttctggtggagaccatttctt\nggtcaaaaatccgtaggtgttagccttcgtattattgaaaatggtcgttcatggctattttcgacaaaaatgggggttgt\ngtggccattgatcatcgaccagaggctcatacacctcaccccacatatgtttccttgccatagatcacattcttggattt\nctggtggagaccatttcttggtcaaaaatccgtaggtgttagccttcggtattattgaaaatggtcgttcatggctattt\ntcgacaaaaatgggg'
p74
aS'aatggtcattcatggctattttcgacaaaaatgggggttgtgtggccattgatcatcgac\ncagaggctcatacacctcaccccacatatgtttccttgccatagatcacattcttggatttctggtggagaccatttctt\nggtcaaaaatccgtaggtgttagccttcgtattattgaaaatggtcgttcatggctattttcgacaaaaatgggggttgt\ngtggccattgatcatcgaccagaggctcatacacctcaccccacatatgtttccttgccatagatcacattcttggattt\nctggtggagaccatttcttggtcaaaaatccgtaggtgttagccttcggtattattgaaaatggtcgttcatggctattt\ntcgacaaaaatgggggttgtgtggccattgatcatcgaccagaggctcatacacctcaccccacatatgtttccttgcca\ntagatcacattcttggatttctggtggagaccat'
p75
aS'catagatcacattcttggatttctggtggagaccatttctt\nggtcaaaaatccgtaggtgttagccttcgtattattgaaaatggtcgttcatggctattttcgacaaaaatgggggttgt\ngtggccattgatcatcgaccagaggctcatacacctcaccccacatatgtttccttgccatagatcacattcttggattt\nctggtggagaccatttcttggtcaaaaatccgtaggtgttagccttcggtattattgaaaatggtcgttcatggctattt\ntcgacaaaaatgggggttgtgtggccattgatcatcgaccagaggctcatacacctcaccccacatatgtttccttgcca\ntagatcacattcttggatttctggtggagaccatttcttggtcaaaaatccgtaggtgttagccttcgtattattgaaaa\ntggtcgttcatggctattttcgacaaaaatgggggttgtgtggccattgatca'
p76
aS'tttcgacaaaaatgggggttgt\ngtggccattgatcatcgaccagaggctcatacacctcaccccacatatgtttccttgccatagatcacattcttggattt\nctggtggagaccatttcttggtcaaaaatccgtaggtgttagccttcggtattattgaaaatggtcgttcatggctattt\ntcgacaaaaatgggggttgtgtggccattgatcatcgaccagaggctcatacacctcaccccacatatgtttccttgcca\ntagatcacattcttggatttctggtggagaccatttcttggtcaaaaatccgtaggtgttagccttcgtattattgaaaa\ntggtcgttcatggctattttcgacaaaaatgggggttgtgtggccattgatcatcgaccagaggctcatacacctcaccc\ncacatatgtttccttgccatagatcacattcttggatttctggtggagaccatttcttggtcaaaaatccgt'
p77
aS'ttt\nctggtggagaccatttcttggtcaaaaatccgtaggtgttagccttcggtattattgaaaatggtcgttcatggctattt\ntcgacaaaaatgggggttgtgtggccattgatcatcgaccagaggctcatacacctcaccccacatatgtttccttgcca\ntagatcacattcttggatttctggtggagaccatttcttggtcaaaaatccgtaggtgttagccttcgtattattgaaaa\ntggtcgttcatggctattttcgacaaaaatgggggttgtgtggccattgatcatcgaccagaggctcatacacctcaccc\ncacatatgtttccttgccatagatcacattcttggatttctggtggagaccatttcttggtcaaaaatccgtaggtgtta\ngccttcggtattattgaaaatggtcgttcatggctattttcgacaaaaatgggggttgtgtggccattgatcatcgacca\ngaggctcata'
p78
aS'gttgtgtggccattgatcatcgaccagaggctcatacacctcaccccacatatgtttccttgcca\ntagatcacattcttggatttctggtggagaccatttcttggtcaaaaatccgtaggtgttagccttcgtattattgaaaa\ntggtcgttcatggctattttcgacaaaaatgggggttgtgtggccattgatcatcgaccagaggctcatacacctcaccc\ncacatatgtttccttgccatagatcacattcttggatttctggtggagaccatttcttggtcaaaaatccgtaggtgtta\ngccttcggtattattgaaaatggtcgttcatggctattttcgacaaaaatgggggttgtgtggccattgatcatcgacca\ngaggctcatacacctcaccccacatatgtttccttgccatagatcacattcttggatttctggtggagaccatttcttgg\ntcaaaaatccgtaggtgttagccttcgta'
p79
aS'ttcttggtcaaaaatccgtaggtgttagccttcgtattattgaaaa\ntggtcgttcatggctattttcgacaaaaatgggggttgtgtggccattgatcatcgaccagaggctcatacacctcaccc\ncacatatgtttccttgccatagatcacattcttggatttctggtggagaccatttcttggtcaaaaatccgtaggtgtta\ngccttcggtattattgaaaatggtcgttcatggctattttcgacaaaaatgggggttgtgtggccattgatcatcgacca\ngaggctcatacacctcaccccacatatgtttccttgccatagatcacattcttggatttctggtggagaccatttcttgg\ntcaaaaatccgtaggtgttagccttcgtattattgaaaatggtcgtcatggctattttcgacaaaaatgggggttgtgtg\ngccattgatcatcgaccagaggctcatacacctcaccccacatatgtt'
p80
aS'tcgaccagaggctcatacacctcaccc\ncacatatgtttccttgccatagatcacattcttggatttctggtggagaccatttcttggtcaaaaatccgtaggtgtta\ngccttcggtattattgaaaatggtcgttcatggctattttcgacaaaaatgggggttgtgtggccattgatcatcgacca\ngaggctcatacacctcaccccacatatgtttccttgccatagatcacattcttggatttctggtggagaccatttcttgg\ntcaaaaatccgtaggtgttagccttcgtattattgaaaatggtcgtcatggctattttcgacaaaaatgggggttgtgtg\ngccattgatcatcgaccagaggctcatacacctcaccccacatatgtttccttgccatagatcacattcttggatttctg\ngtggagaccatttcttggtcaaaaatcgtagtgttagccttcggtattattgaaaatggtcgttcat'
p81
aS'aggtgtta\ngccttcggtattattgaaaatggtcgttcatggctattttcgacaaaaatgggggttgtgtggccattgatcatcgacca\ngaggctcatacacctcaccccacatatgtttccttgccatagatcacattcttggatttctggtggagaccatttcttgg\ntcaaaaatccgtaggtgttagccttcgtattattgaaaatggtcgtcatggctattttcgacaaaaatgggggttgtgtg\ngccattgatcatcgaccagaggctcatacacctcaccccacatatgtttccttgccatagatcacattcttggatttctg\ngtggagaccatttcttggtcaaaaatcgtagtgttagccttcggtattattgaaaatggtcgttcatggctattttcggc\naaaaatgggggttgtgtggccattgatcatcgaccagaggctcatacacctcaccccacatatgtttccttgccatagat\ncacat'
p82
aS'cacctcaccccacatatgtttccttgccatagatcacattcttggatttctggtggagaccatttcttgg\ntcaaaaatccgtaggtgttagccttcgtattattgaaaatggtcgtcatggctattttcgacaaaaatgggggttgtgtg\ngccattgatcatcgaccagaggctcatacacctcaccccacatatgtttccttgccatagatcacattcttggatttctg\ngtggagaccatttcttggtcaaaaatcgtagtgttagccttcggtattattgaaaatggtcgttcatggctattttcggc\naaaaatgggggttgtgtggccattgatcatcgaccagaggctcatacacctcaccccacatatgtttccttgccatagat\ncacattcttggatttctggtggagaccatttcttggtcaaaaatccgtacgtgttagccttcggtattattgaaaatggt\ncattcatggctattttcgacaaaa'
p83
aS'ttattgaaaatggtcgtcatggctattttcgacaaaaatgggggttgtgtg\ngccattgatcatcgaccagaggctcatacacctcaccccacatatgtttccttgccatagatcacattcttggatttctg\ngtggagaccatttcttggtcaaaaatcgtagtgttagccttcggtattattgaaaatggtcgttcatggctattttcggc\naaaaatgggggttgtgtggccattgatcatcgaccagaggctcatacacctcaccccacatatgtttccttgccatagat\ncacattcttggatttctggtggagaccatttcttggtcaaaaatccgtacgtgttagccttcggtattattgaaaatggt\ncattcatggctattttcgacaaaaatgggggttgtgtggccattgatctcgaccagaggctcatacacctcacccacata\ntgtttccttgccatagatcacattcttggatttctggtggaga'
p84
aS'tccttgccatagatcacattcttggatttctg\ngtggagaccatttcttggtcaaaaatcgtagtgttagccttcggtattattgaaaatggtcgttcatggctattttcggc\naaaaatgggggttgtgtggccattgatcatcgaccagaggctcatacacctcaccccacatatgtttccttgccatagat\ncacattcttggatttctggtggagaccatttcttggtcaaaaatccgtacgtgttagccttcggtattattgaaaatggt\ncattcatggctattttcgacaaaaatgggggttgtgtggccattgatctcgaccagaggctcatacacctcacccacata\ntgtttccttgccatagatcacattcttggatttctggtggagaccatttcttggtcaaaaatccgtaggtgttagccttc\ngtattattgaaaatggtcgttcatggctattttcgacaaaaatggggttgtgtggccattga'
p85
aS'ggctattttcggc\naaaaatgggggttgtgtggccattgatcatcgaccagaggctcatacacctcaccccacatatgtttccttgccatagat\ncacattcttggatttctggtggagaccatttcttggtcaaaaatccgtacgtgttagccttcggtattattgaaaatggt\ncattcatggctattttcgacaaaaatgggggttgtgtggccattgatctcgaccagaggctcatacacctcacccacata\ntgtttccttgccatagatcacattcttggatttctggtggagaccatttcttggtcaaaaatccgtaggtgttagccttc\ngtattattgaaaatggtcgttcatggctattttcgacaaaaatggggttgtgtggccattgatctcgaccagaggctcat\nacacctcaccccacatatgtttccttgccatagatcacattcttggatttctggtggagaccatttcttggtcaaaaatc\n'
p86
aS'tcttggatttctggtggagaccatttcttggtcaaaaatccgtacgtgttagccttcggtattattgaaaatggt\ncattcatggctattttcgacaaaaatgggggttgtgtggccattgatctcgaccagaggctcatacacctcacccacata\ntgtttccttgccatagatcacattcttggatttctggtggagaccatttcttggtcaaaaatccgtaggtgttagccttc\ngtattattgaaaatggtcgttcatggctattttcgacaaaaatggggttgtgtggccattgatctcgaccagaggctcat\nacacctcaccccacatatgtttccttgccatagatcacattcttggatttctggtggagaccatttcttggtcaaaaatc\ncgtaggtgttagccttcggtattattgaaaatggtcgttcatggctattttcgacaaaaatgggggttgtgtggccattg\natcatcgaccagacgctca'
p87
aS'atgggggttgtgtggccattgatctcgaccagaggctcatacacctcacccacata\ntgtttccttgccatagatcacattcttggatttctggtggagaccatttcttggtcaaaaatccgtaggtgttagccttc\ngtattattgaaaatggtcgttcatggctattttcgacaaaaatggggttgtgtggccattgatctcgaccagaggctcat\nacacctcaccccacatatgtttccttgccatagatcacattcttggatttctggtggagaccatttcttggtcaaaaatc\ncgtaggtgttagccttcggtattattgaaaatggtcgttcatggctattttcgacaaaaatgggggttgtgtggccattg\natcatcgaccagacgctcatacacctcaccccacatatgtttccttgccatagatcacattcttggatttctggtggaga\nccatttcttggtctaaaatccgtaggtgttagcctcta'
p88
aS'ccatttcttggtcaaaaatccgtaggtgttagccttc\ngtattattgaaaatggtcgttcatggctattttcgacaaaaatggggttgtgtggccattgatctcgaccagaggctcat\nacacctcaccccacatatgtttccttgccatagatcacattcttggatttctggtggagaccatttcttggtcaaaaatc\ncgtaggtgttagccttcggtattattgaaaatggtcgttcatggctattttcgacaaaaatgggggttgtgtggccattg\natcatcgaccagacgctcatacacctcaccccacatatgtttccttgccatagatcacattcttggatttctggtggaga\nccatttcttggtctaaaatccgtaggtgttagcctctagtattattgaaaatggtcgctcatggctatttcaGTCTCATG\nGCTatttcataaaaaatgggggttgtgtggccatttatcatcgactagaggctcata'
p89
aS'tctcgaccagaggctcat\nacacctcaccccacatatgtttccttgccatagatcacattcttggatttctggtggagaccatttcttggtcaaaaatc\ncgtaggtgttagccttcggtattattgaaaatggtcgttcatggctattttcgacaaaaatgggggttgtgtggccattg\natcatcgaccagacgctcatacacctcaccccacatatgtttccttgccatagatcacattcttggatttctggtggaga\nccatttcttggtctaaaatccgtaggtgttagcctctagtattattgaaaatggtcgctcatggctatttcaGTCTCATG\nGCTatttcataaaaaatgggggttgtgtggccatttatcatcgactagaggctcataaacctcaccccacatatgtttcc\nttgccatagatcacattcttggatttctggtggagaccatttcttggttaaaaactcgtacgtgttagccttcggt'
p90
aS'cgtaggtgttagccttcggtattattgaaaatggtcgttcatggctattttcgacaaaaatgggggttgtgtggccattg\natcatcgaccagacgctcatacacctcaccccacatatgtttccttgccatagatcacattcttggatttctggtggaga\nccatttcttggtctaaaatccgtaggtgttagcctctagtattattgaaaatggtcgctcatggctatttcaGTCTCATG\nGCTatttcataaaaaatgggggttgtgtggccatttatcatcgactagaggctcataaacctcaccccacatatgtttcc\nttgccatagatcacattcttggatttctggtggagaccatttcttggttaaaaactcgtacgtgttagccttcggtatta\nttgaaaatggtcgttcatggctattttcggcaaaatgggggttgtgtggccattgatcatcgaccagaggctcgtacacc\ntcaccccacatatg'
p91
aS'tacacctcaccccacatatgtttccttgccatagatcacattcttggatttctggtggaga\nccatttcttggtctaaaatccgtaggtgttagcctctagtattattgaaaatggtcgctcatggctatttcaGTCTCATG\nGCTatttcataaaaaatgggggttgtgtggccatttatcatcgactagaggctcataaacctcaccccacatatgtttcc\nttgccatagatcacattcttggatttctggtggagaccatttcttggttaaaaactcgtacgtgttagccttcggtatta\nttgaaaatggtcgttcatggctattttcggcaaaatgggggttgtgtggccattgatcatcgaccagaggctcgtacacc\ntcaccccacatatgtttccttgccatagatcacattcttggatttctggtggagaccatttcttggtcaaaaatccgtac\ngtgttagccttcggtattattgaaaatggtcat'
p92
aS'gtattattgaaaatggtcgctcatggctatttcaGTCTCATG\nGCTatttcataaaaaatgggggttgtgtggccatttatcatcgactagaggctcataaacctcaccccacatatgtttcc\nttgccatagatcacattcttggatttctggtggagaccatttcttggttaaaaactcgtacgtgttagccttcggtatta\nttgaaaatggtcgttcatggctattttcggcaaaatgggggttgtgtggccattgatcatcgaccagaggctcgtacacc\ntcaccccacatatgtttccttgccatagatcacattcttggatttctggtggagaccatttcttggtcaaaaatccgtac\ngtgttagccttcggtattattgaaaatggtcattcatggctattttcggcaaaatgggggttgtgtggccattgatctcg\naccagaggctcatacacctcacccacatatgtttccttgccatagatcacat'
p93
aS'aacctcaccccacatatgtttcc\nttgccatagatcacattcttggatttctggtggagaccatttcttggttaaaaactcgtacgtgttagccttcggtatta\nttgaaaatggtcgttcatggctattttcggcaaaatgggggttgtgtggccattgatcatcgaccagaggctcgtacacc\ntcaccccacatatgtttccttgccatagatcacattcttggatttctggtggagaccatttcttggtcaaaaatccgtac\ngtgttagccttcggtattattgaaaatggtcattcatggctattttcggcaaaatgggggttgtgtggccattgatctcg\naccagaggctcatacacctcacccacatatgtttccttgccatagatcacattcttggatttctggtggagaccatttct\ntggtcaaaaatccgtaggtgttagccttcgtattattgaaaatggtcgttcatggctattttcgacaaaaa'
p94
aS'atta\nttgaaaatggtcgttcatggctattttcggcaaaatgggggttgtgtggccattgatcatcgaccagaggctcgtacacc\ntcaccccacatatgtttccttgccatagatcacattcttggatttctggtggagaccatttcttggtcaaaaatccgtac\ngtgttagccttcggtattattgaaaatggtcattcatggctattttcggcaaaatgggggttgtgtggccattgatctcg\naccagaggctcatacacctcacccacatatgtttccttgccatagatcacattcttggatttctggtggagaccatttct\ntggtcaaaaatccgtaggtgttagccttcgtattattgaaaatggtcgttcatggctattttcgacaaaaatggggttgt\ngtggccattgatcatcgaccagaggctcatacacctcaccccacatatgtttccttgccatagatcacattcttggattt\nctggtggag'
p95
aS'tttccttgccatagatcacattcttggatttctggtggagaccatttcttggtcaaaaatccgtac\ngtgttagccttcggtattattgaaaatggtcattcatggctattttcggcaaaatgggggttgtgtggccattgatctcg\naccagaggctcatacacctcacccacatatgtttccttgccatagatcacattcttggatttctggtggagaccatttct\ntggtcaaaaatccgtaggtgttagccttcgtattattgaaaatggtcgttcatggctattttcgacaaaaatggggttgt\ngtggccattgatcatcgaccagaggctcatacacctcaccccacatatgtttccttgccatagatcacattcttggattt\nctggtggagaccatttcttggtcaaaaatccgtaggtgttagccttcggtattattgaaaatggtcgttcatggctattt\ntcgacaaaaatgggggttgtgtggccat'
p96
aS'tcatggctattttcggcaaaatgggggttgtgtggccattgatctcg\naccagaggctcatacacctcacccacatatgtttccttgccatagatcacattcttggatttctggtggagaccatttct\ntggtcaaaaatccgtaggtgttagccttcgtattattgaaaatggtcgttcatggctattttcgacaaaaatggggttgt\ngtggccattgatcatcgaccagaggctcatacacctcaccccacatatgtttccttgccatagatcacattcttggattt\nctggtggagaccatttcttggtcaaaaatccgtaggtgttagccttcggtattattgaaaatggtcgttcatggctattt\ntcgacaaaaatgggggttgtgtggccattgatcatcgaccagagctcatacacctcaccccacatatgtttccttgccat\nagatcacattcttggatttctggtggagaccatttcttggtcaaaaa'
p97
aS'tcttggatttctggtggagaccatttct\ntggtcaaaaatccgtaggtgttagccttcgtattattgaaaatggtcgttcatggctattttcgacaaaaatggggttgt\ngtggccattgatcatcgaccagaggctcatacacctcaccccacatatgtttccttgccatagatcacattcttggattt\nctggtggagaccatttcttggtcaaaaatccgtaggtgttagccttcggtattattgaaaatggtcgttcatggctattt\ntcgacaaaaatgggggttgtgtggccattgatcatcgaccagagctcatacacctcaccccacatatgtttccttgccat\nagatcacattcttggatttctggtggagaccatttcttggtcaaaaatccgtaggtgttagccttcgtattattgaaaat\nggtcgttcatggctattttcgacaaaaaatgggggttgtgtggccattgatcatcgaccagaggct'
p98
aS'tggggttgt\ngtggccattgatcatcgaccagaggctcatacacctcaccccacatatgtttccttgccatagatcacattcttggattt\nctggtggagaccatttcttggtcaaaaatccgtaggtgttagccttcggtattattgaaaatggtcgttcatggctattt\ntcgacaaaaatgggggttgtgtggccattgatcatcgaccagagctcatacacctcaccccacatatgtttccttgccat\nagatcacattcttggatttctggtggagaccatttcttggtcaaaaatccgtaggtgttagccttcgtattattgaaaat\nggtcgttcatggctattttcgacaaaaaatgggggttgtgtggccattgatcatcgaccagaggctcatacacctcaccc\ncacatatgtttccttgccatagatcacattcttggatttctggtggagaccatttcttggtcaaaaatccgtacgtgtta\ngcct'
p99
aS'accatttcttggtcaaaaatccgtaggtgttagccttcggtattattgaaaatggtcgttcatggctattt\ntcgacaaaaatgggggttgtgtggccattgatcatcgaccagagctcatacacctcaccccacatatgtttccttgccat\nagatcacattcttggatttctggtggagaccatttcttggtcaaaaatccgtaggtgttagccttcgtattattgaaaat\nggtcgttcatggctattttcgacaaaaaatgggggttgtgtggccattgatcatcgaccagaggctcatacacctcaccc\ncacatatgtttccttgccatagatcacattcttggatttctggtggagaccatttcttggtcaaaaatccgtacgtgtta\ngccttcggtattattgaaaatggtcattcatggctattttcggcaaaatgggggttgtgtggccattgatcatcgaccag\naggctcatacacctcaccccaca'
p100
aS'tgatcatcgaccagagctcatacacctcaccccacatatgtttccttgccat\nagatcacattcttggatttctggtggagaccatttcttggtcaaaaatccgtaggtgttagccttcgtattattgaaaat\nggtcgttcatggctattttcgacaaaaaatgggggttgtgtggccattgatcatcgaccagaggctcatacacctcaccc\ncacatatgtttccttgccatagatcacattcttggatttctggtggagaccatttcttggtcaaaaatccgtacgtgtta\ngccttcggtattattgaaaatggtcattcatggctattttcggcaaaatgggggttgtgtggccattgatcatcgaccag\naggctcatacacctcaccccacatatgtttccttgccatagatcacattcttggatttctggtggagaccatttcttggt\ncaaaaatccgtagtgttagccttcgtattattgaaaatggtc'
p101
aS'tccgtaggtgttagccttcgtattattgaaaat\nggtcgttcatggctattttcgacaaaaaatgggggttgtgtggccattgatcatcgaccagaggctcatacacctcaccc\ncacatatgtttccttgccatagatcacattcttggatttctggtggagaccatttcttggtcaaaaatccgtacgtgtta\ngccttcggtattattgaaaatggtcattcatggctattttcggcaaaatgggggttgtgtggccattgatcatcgaccag\naggctcatacacctcaccccacatatgtttccttgccatagatcacattcttggatttctggtggagaccatttcttggt\ncaaaaatccgtagtgttagccttcgtattattgaaaatggtcgttcatggctattttcgacaaaaatgggggttgtgtgg\nccattgatcatcgaccagaggctcatacacctcaccccacatatgtttccttgccatagat'
p102
aS'catacacctcaccc\ncacatatgtttccttgccatagatcacattcttggatttctggtggagaccatttcttggtcaaaaatccgtacgtgtta\ngccttcggtattattgaaaatggtcattcatggctattttcggcaaaatgggggttgtgtggccattgatcatcgaccag\naggctcatacacctcaccccacatatgtttccttgccatagatcacattcttggatttctggtggagaccatttcttggt\ncaaaaatccgtagtgttagccttcgtattattgaaaatggtcgttcatggctattttcgacaaaaatgggggttgtgtgg\nccattgatcatcgaccagaggctcatacacctcaccccacatatgtttccttgccatagatcacattcttggatttctgg\ntggagaccatttcttggtcaaaaatccgtaggtgttagccttcggtattattgaaaatggtcgttcatggctattttcga'
p103
aS'tcggtattattgaaaatggtcattcatggctattttcggcaaaatgggggttgtgtggccattgatcatcgaccag\naggctcatacacctcaccccacatatgtttccttgccatagatcacattcttggatttctggtggagaccatttcttggt\ncaaaaatccgtagtgttagccttcgtattattgaaaatggtcgttcatggctattttcgacaaaaatgggggttgtgtgg\nccattgatcatcgaccagaggctcatacacctcaccccacatatgtttccttgccatagatcacattcttggatttctgg\ntggagaccatttcttggtcaaaaatccgtaggtgttagccttcggtattattgaaaatggtcgttcatggctattttcga\ncaaaaatgggggttgtgtggccattgatcatcgaccagaggctcatacacctcaccccacatatgtttccttgccataga\ntcacattcttggatttct'
p104
aS'tatgtttccttgccatagatcacattcttggatttctggtggagaccatttcttggt\ncaaaaatccgtagtgttagccttcgtattattgaaaatggtcgttcatggctattttcgacaaaaatgggggttgtgtgg\nccattgatcatcgaccagaggctcatacacctcaccccacatatgtttccttgccatagatcacattcttggatttctgg\ntggagaccatttcttggtcaaaaatccgtaggtgttagccttcggtattattgaaaatggtcgttcatggctattttcga\ncaaaaatgggggttgtgtggccattgatcatcgaccagaggctcatacacctcaccccacatatgtttccttgccataga\ntcacattcttggatttctggtggagaccatttcttggtcaaaaatccgtaggtgttagccttcgtattattgaaaatggt\ncgttcatggctattttcgacaaaaatgggggttgtgt'
p105
aS'gttcatggctattttcgacaaaaatgggggttgtgtgg\nccattgatcatcgaccagaggctcatacacctcaccccacatatgtttccttgccatagatcacattcttggatttctgg\ntggagaccatttcttggtcaaaaatccgtaggtgttagccttcggtattattgaaaatggtcgttcatggctattttcga\ncaaaaatgggggttgtgtggccattgatcatcgaccagaggctcatacacctcaccccacatatgtttccttgccataga\ntcacattcttggatttctggtggagaccatttcttggtcaaaaatccgtaggtgttagccttcgtattattgaaaatggt\ncgttcatggctattttcgacaaaaatgggggttgtgtggccattgatcatcgaccagaggctcatacacctcaccccaca\ntatgtttccttgccatagatcacattcttggatttctggtggagaccatttcttgg'
p106
aS'cacattcttggatttctgg\ntggagaccatttcttggtcaaaaatccgtaggtgttagccttcggtattattgaaaatggtcgttcatggctattttcga\ncaaaaatgggggttgtgtggccattgatcatcgaccagaggctcatacacctcaccccacatatgtttccttgccataga\ntcacattcttggatttctggtggagaccatttcttggtcaaaaatccgtaggtgttagccttcgtattattgaaaatggt\ncgttcatggctattttcgacaaaaatgggggttgtgtggccattgatcatcgaccagaggctcatacacctcaccccaca\ntatgtttccttgccatagatcacattcttggatttctggtggagaccatttcttggtcaaaaatccgtaggtgttagcct\ntcggtattattgaaaatggtcgttcatggctattttcgacaaaaatgggggttgtgtggccattgatcatcgacc'
p107
aS'\ncaaaaatgggggttgtgtggccattgatcatcgaccagaggctcatacacctcaccccacatatgtttccttgccataga\ntcacattcttggatttctggtggagaccatttcttggtcaaaaatccgtaggtgttagccttcgtattattgaaaatggt\ncgttcatggctattttcgacaaaaatgggggttgtgtggccattgatcatcgaccagaggctcatacacctcaccccaca\ntatgtttccttgccatagatcacattcttggatttctggtggagaccatttcttggtcaaaaatccgtaggtgttagcct\ntcggtattattgaaaatggtcgttcatggctattttcgacaaaaatgggggttgtgtggccattgatcatcgaccagagg\nctcatacacctcaccccacatatgtttccttgccatagatcacattcttggatttctggtggagaccatttcttggtcaa\naaatccgtaggtg'
p108
aS'ggtggagaccatttcttggtcaaaaatccgtaggtgttagccttcgtattattgaaaatggt\ncgttcatggctattttcgacaaaaatgggggttgtgtggccattgatcatcgaccagaggctcatacacctcaccccaca\ntatgtttccttgccatagatcacattcttggatttctggtggagaccatttcttggtcaaaaatccgtaggtgttagcct\ntcggtattattgaaaatggtcgttcatggctattttcgacaaaaatgggggttgtgtggccattgatcatcgaccagagg\nctcatacacctcaccccacatatgtttccttgccatagatcacattcttggatttctggtggagaccatttcttggtcaa\naaatccgtaggtgttagccttcggtattattgaaaatggtcgttcatggctattttcgacaaaaatgggggttgtgtggc\ncattgatcatcgaccagaggctcatacacctc'
p109
aS'ggccattgatcatcgaccagaggctcatacacctcaccccaca\ntatgtttccttgccatagatcacattcttggatttctggtggagaccatttcttggtcaaaaatccgtaggtgttagcct\ntcggtattattgaaaatggtcgttcatggctattttcgacaaaaatgggggttgtgtggccattgatcatcgaccagagg\nctcatacacctcaccccacatatgtttccttgccatagatcacattcttggatttctggtggagaccatttcttggtcaa\naaatccgtaggtgttagccttcggtattattgaaaatggtcgttcatggctattttcgacaaaaatgggggttgtgtggc\ncattgatcatcgaccagaggctcatacacctcaccccacatatgtttccttgccatagatcacattcttggatttctggt\nggagaccatttcttggtcaaaaatccgtaggtgttagccttcggtattatt'
p110
aS'tcaaaaatccgtaggtgttagcct\ntcggtattattgaaaatggtcgttcatggctattttcgacaaaaatgggggttgtgtggccattgatcatcgaccagagg\nctcatacacctcaccccacatatgtttccttgccatagatcacattcttggatttctggtggagaccatttcttggtcaa\naaatccgtaggtgttagccttcggtattattgaaaatggtcgttcatggctattttcgacaaaaatgggggttgtgtggc\ncattgatcatcgaccagaggctcatacacctcaccccacatatgtttccttgccatagatcacattcttggatttctggt\nggagaccatttcttggtcaaaaatccgtaggtgttagccttcggtattattgaaaatggtcgttcatggctattttcgac\naaaaatgggggttgtgtggccattgatcatcgaccagaggctcatacacctcaccccacatatgtttcct'
p111
aS'agagg\nctcatacacctcaccccacatatgtttccttgccatagatcacattcttggatttctggtggagaccatttcttggtcaa\naaatccgtaggtgttagccttcggtattattgaaaatggtcgttcatggctattttcgacaaaaatgggggttgtgtggc\ncattgatcatcgaccagaggctcatacacctcaccccacatatgtttccttgccatagatcacattcttggatttctggt\nggagaccatttcttggtcaaaaatccgtaggtgttagccttcggtattattgaaaatggtcgttcatggctattttcgac\naaaaatgggggttgtgtggccattgatcatcgaccagaggctcatacacctcaccccacatatgtttccttgccatagat\ncacattcttggatttctggtggagaccatttcttggtcaaaaatccgtaggtgttagccttcggtattattgaaaatggt\ncgttcatg'
p112
aS'ttagccttcggtattattgaaaatggtcgttcatggctattttcgacaaaaatgggggttgtgtggc\ncattgatcatcgaccagaggctcatacacctcaccccacatatgtttccttgccatagatcacattcttggatttctggt\nggagaccatttcttggtcaaaaatccgtaggtgttagccttcggtattattgaaaatggtcgttcatggctattttcgac\naaaaatgggggttgtgtggccattgatcatcgaccagaggctcatacacctcaccccacatatgtttccttgccatagat\ncacattcttggatttctggtggagaccatttcttggtcaaaaatccgtaggtgttagccttcggtattattgaaaatggt\ncgttcatggctattttcgacaaaaatgggggttgtgtggccattgatcatcgaccagaggctcatacacctcaccccaca\ntatgtttccttgccatagatcacattc'
p113
aS'accccacatatgtttccttgccatagatcacattcttggatttctggt\nggagaccatttcttggtcaaaaatccgtaggtgttagccttcggtattattgaaaatggtcgttcatggctattttcgac\naaaaatgggggttgtgtggccattgatcatcgaccagaggctcatacacctcaccccacatatgtttccttgccatagat\ncacattcttggatttctggtggagaccatttcttggtcaaaaatccgtaggtgttagccttcggtattattgaaaatggt\ncgttcatggctattttcgacaaaaatgggggttgtgtggccattgatcatcgaccagaggctcatacacctcaccccaca\ntatgtttccttgccatagatcacattcttggatttctggtggagaccatttcttggtcaaaaatccgtaggtgttagcct\ntcgtattattgaaaatggtcgttcatggctattttcgacaaaaatg'
p114
aS'gaaaatggtcgttcatggctattttcgac\naaaaatgggggttgtgtggccattgatcatcgaccagaggctcatacacctcaccccacatatgtttccttgccatagat\ncacattcttggatttctggtggagaccatttcttggtcaaaaatccgtaggtgttagccttcggtattattgaaaatggt\ncgttcatggctattttcgacaaaaatgggggttgtgtggccattgatcatcgaccagaggctcatacacctcaccccaca\ntatgtttccttgccatagatcacattcttggatttctggtggagaccatttcttggtcaaaaatccgtaggtgttagcct\ntcgtattattgaaaatggtcgttcatggctattttcgacaaaaatgggggttgtgtggccattgatcatcgaccagaggc\ntcatacacctcaccccacatatgtttccttgccatagatcacattcttggatttctggtggagac'
p115
aS'tgccatagat\ncacattcttggatttctggtggagaccatttcttggtcaaaaatccgtaggtgttagccttcggtattattgaaaatggt\ncgttcatggctattttcgacaaaaatgggggttgtgtggccattgatcatcgaccagaggctcatacacctcaccccaca\ntatgtttccttgccatagatcacattcttggatttctggtggagaccatttcttggtcaaaaatccgtaggtgttagcct\ntcgtattattgaaaatggtcgttcatggctattttcgacaaaaatgggggttgtgtggccattgatcatcgaccagaggc\ntcatacacctcaccccacatatgtttccttgccatagatcacattcttggatttctggtggagaccatttcttggtcaaa\naatccgtaggtgttagccttcgtattattgaaaatggtcgttcatggctattttcgacaaaaatgggggttgtgtggcca\n'
p116
aS'gctattttcgacaaaaatgggggttgtgtggccattgatcatcgaccagaggctcatacacctcaccccaca\ntatgtttccttgccatagatcacattcttggatttctggtggagaccatttcttggtcaaaaatccgtaggtgttagcct\ntcgtattattgaaaatggtcgttcatggctattttcgacaaaaatgggggttgtgtggccattgatcatcgaccagaggc\ntcatacacctcaccccacatatgtttccttgccatagatcacattcttggatttctggtggagaccatttcttggtcaaa\naatccgtaggtgttagccttcgtattattgaaaatggtcgttcatggctattttcgacaaaaatgggggttgtgtggcca\n'
p117
aS'ttggatttctggtggagaccatttcttggtcaaaaatccgtaggtgttagcct\ntcgtattattgaaaatggtcgttcatggctattttcgacaaaaatgggggttgtgtggccattgatcatcgaccagaggc\ntcatacacctcaccccacatatgtttccttgccatagatcacattcttggatttctggtggagaccatttcttggtcaaa\naatccgtaggtgttagccttcgtattattgaaaatggtcgttcatggctattttcgacaaaaatgggggttgtgtggcca\n'
p118
aS'ggggttgtgtggccattgatcatcgaccagaggc\ntcatacacctcaccccacatatgtttccttgccatagatcacattcttggatttctggtggagaccatttcttggtcaaa\naatccgtaggtgttagccttcgtattattgaaaatggtcgttcatggctattttcgacaaaaatgggggttgtgtggcca\n'
p119
aS'catttcttggtcaaa\naatccgtaggtgttagccttcgtattattgaaaatggtcgttcatggctattttcgacaaaaatgggggttgtgtggcca\n'
p120
a.