(lp0
S'CTCCTCAAAGGCCATCCAGAGCTGAATCTGATGAAGAATATGTGGCAGAGGAAGATGAGCCTGAGAGCTCTAAGTGTGGTGGAGCTGAGCCAGAACATGGATCAGATCAAGAAGATAGCTCCCCAGCAGGTTCAGATGAAGAAGAACCTGAAGAAGACTTGGAAACAAAATTCTTCTATCTTTTCCAGAATTCTCTAAGGACGGAGCAAGGACAGATGAATTTCCCACAAAAGTTAGTGTACAAGAAATGGCCAAAGGGAGATCCAAGCAAGTCAAAGAGCAAGATTGCCTCAAAGAGCCCTAGTACCTTTATTCTGATGAGGTCAACTTGCCCATATTTTGAAGGACAGAGATTTGTTGAACCAAGCTGCTCTGACCCCAGATTTCAAAATGAAGATAAGAGAGGGGTCTATCATGAGATTGTCTCTCAGAAGAGAATTGTGGACAGTAAGATGATAGACTAAAAAGCCCTTACTGATGCTGGCCTGAGTGCCATTCCA'
p1
aS'CTCCTCAAAGGCCATCCAGAGCTGAATCTGATGAAGAATATGTGGCAGAGGAAGATGAGCCTGAGAGCTCTAAGTGTGGTGGAGCTGAGCCAGAACATGGATCAGATCAAGAAGATAGCTCCCCAGCAGGTTCAGATGAAGAAGAACCTGAAGAAGACTTGGAAACAAAATTCTTCTATCTTTTCCAGAATTCTCTAAGGACGGAGCAAGGACAGATGAATTTCCCACAAAAGTTAGTGTACAAGAAATGGCCAAAGGGAGATCCAAGCAAGTCAAAGAGCAAGATTGCCTCAAAGAGCCCTAGTACCTTTATTCTGATGAGGTCAACTTGCCCATATTTTGAAGGACAGAGATTTGTTGAACCAAGCTGCTCTGACCCCAGATTTCAAAATGAAGATAAGAGAGGGGTCTATCATGAGATTGTCTCTCAGAAGAGAATTGTGGACAGTAAGATGATAGACTAAAAAGCCCTTACTGATGCTGGCCTGAGTGCCATTCCA'
p2
aS'CTCCTCAAAGGCCATCCAGAGCTGAATCTGATGAAGAATATGTGGCAGAGGAAGATGAGCCTGAGAGCTCTAAGTGTGGTGGAGCTGAGCCAGAACATGGATCAGATCAAGAAGATAGCTCCCCAGCAGGTTCAGATGAAGAAGAACCTGAAGAAGACTTGGAAACAAAATTCTTCTATCTTTTCCAGAATTCTCTAAGGACGGAGCAAGGACAGATGAATTTCCCACAAAAGTTAGTGTACAAGAAATGGCCAAAGGGAGATCCAAGCAAGTCAAAGAGCAAGATTGCCTCAAAGAGCCCTAGTACCTTTATTCTGATGAGGTCAACTTGCCCATATTTTGAAGGACAGAGATTTGTTGAACCAAGCTGCTCTGACCCCAGATTTCAAAATGAAGATAAGAGAGGGGTCTATCATGAGATTGTCTCTCAGAAGAGAATTGTGGACAGTAAGATGATAGACTAAAAAGCCCTTACTGATGCTGGCCTGAGTGCCATTCCA'
p3
aS'CTCCTCAAAGGCCATCCAGAGCTGAATCTGATGAAGAATATGTGGCAGAGGAAGATGAGCCTGAGAGCTCTAAGTGTGGTGGAGCTGAGCCAGAACATGGATCAGATCAAGAAGATAGCTCCCCAGCAGGTTCAGATGAAGAAGAACCTGAAGAAGACTTGGAAACAAAATTCTTCTATCTTTTCCAGAATTCTCTAAGGACGGAGCAAGGACAGATGAATTTCCCACAAAAGTTAGTGTACAAGAAATGGCCAAAGGGAGATCCAAGCAAGTCAAAGAGCAAGATTGCCTCAAAGAGCCCTAGTACCTTTATTCTGATGAGGTCAACTTGCCCATATTTTGAAGGACAGAGATTTGTTGAACCAAGCTGCTCTGACCCCAGATTTCAAAATGAAGATAAGAGAGGGGTCTATCATGAGATTGTCTCTCAGAAGAGAATTGTGGACAGTAAGATGATAGACTAAAAAGCCCTTACTGATGCTGGCCTGAGTGCCATTCCA'
p4
aS'CTCCTCAAAGGCCATCCAGAGCTGAATCTGATGAAGAATATGTGGCAGAGGAAGATGAGCCTGAGAGCTCTAAGTGTGGTGGAGCTGAGCCAGAACATGGATCAGATCAAGAAGATAGCTCCCCAGCAGGTTCAGATGAAGAAGAACCTGAAGAAGACTTGGAAACAAAATTCTTCTATCTTTTCCAGAATTCTCTAAGGACGGAGCAAGGACAGATGAATTTCCCACAAAAGTTAGTGTACAAGAAATGGCCAAAGGGAGATCCAAGCAAGTCAAAGAGCAAGATTGCCTCAAAGAGCCCTAGTACCTTTATTCTGATGAGGTCAACTTGCCCATATTTTGAAGGACAGAGATTTGTTGAACCAAGCTGCTCTGACCCCAGATTTCAAAATGAAGATAAGAGAGGGGTCTATCATGAGATTGTCTCTCAGAAGAGAATTGTGGACAGTAAGATGATAGACTAAAAAGCCCTTACTGATGCTGGCCTGAGTGCCATTCCA'
p5
aS'CTCCTCAAAGGCCATCCAGAGCTGAATCTGATGAAGAATATGTGGCAGAGGAAGATGAGCCTGAGAGCTCTAAGTGTGGTGGAGCTGAGCCAGAACATGGATCAGATCAAGAAGATAGCTCCCCAGCAGGTTCAGATGAAGAAGAACCTGAAGAAGACTTGGAAACAAAATTCTTCTATCTTTTCCAGAATTCTCTAAGGACGGAGCAAGGACAGATGAATTTCCCACAAAAGTTAGTGTACAAGAAATGGCCAAAGGGAGATCCAAGCAAGTCAAAGAGCAAGATTGCCTCAAAGAGCCCTAGTACCTTTATTCTGATGAGGTCAACTTGCCCATATTTTGAAGGACAGAGATTTGTTGAACCAAGCTGCTCTGACCCCAGATTTCAAAATGAAGATAAGAGAGGGGTCTATCATGAGATTGTCTCTCAGAAGAGAATTGTGGACAGTAAGATGATAGACTAAAAAGCCCTTACTGATGCTGGCCTGAGTGCCATTCCA'
p6
aS'CTCCTCAAAGGCCATCCAGAGCTGAATCTGATGAAGAATATGTGGCAGAGGAAGATGAGCCTGAGAGCTCTAAGTGTGGTGGAGCTGAGCCAGAACATGGATCAGATCAAGAAGATAGCTCCCCAGCAGGTTCAGATGAAGAAGAACCTGAAGAAGACTTGGAAACAAAATTCTTCTATCTTTTCCAGAATTCTCTAAGGACGGAGCAAGGACAGATGAATTTCCCACAAAAGTTAGTGTACAAGAAATGGCCAAAGGGAGATCCAAGCAAGTCAAAGAGCAAGATTGCCTCAAAGAGCCCTAGTACCTTTATTCTGATGAGGTCAACTTGCCCATATTTTGAAGGACAGAGATTTGTTGAACCAAGCTGCTCTGACCCCAGATTTCAAAATGAAGATAAGAGAGGGGTCTATCATGAGATTGTCTCTCAGAAGAGAATTGTGGACAGTAAGATGATAGACTAAAAAGCCCTTACTGATGCTGGCCTGAGTGCCATTCCA'
p7
aS'CTCCTCAAAGGCCATCCAGAGCTGAATCTGATGAAGAATATGTGGCAGAGGAAGATGAGCCTGAGAGCTCTAAGTGTGGTGGAGCTGAGCCAGAACATGGATCAGATCAAGAAGATAGCTCCCCAGCAGGTTCAGATGAAGAAGAACCTGAAGAAGACTTGGAAACAAAATTCTTCTATCTTTTCCAGAATTCTCTAAGGACGGAGCAAGGACAGATGAATTTCCCACAAAAGTTAGTGTACAAGAAATGGCCAAAGGGAGATCCAAGCAAGTCAAAGAGCAAGATTGCCTCAAAGAGCCCTAGTACCTTTATTCTGATGAGGTCAACTTGCCCATATTTTGAAGGACAGAGATTTGTTGAACCAAGCTGCTCTGACCCCAGATTTCAAAATGAAGATAAGAGAGGGGTCTATCATGAGATTGTCTCTCAGAAGAGAATTGTGGACAGTAAGATGATAGACTAAAAAGCCCTTACTGATGCTGGCCTGAGTGCCATTCCA'
p8
aS'CTCCTCAAAGGCCATCCAGAGCTGAATCTGATGAAGAATATGTGGCAGAGGAAGATGAGCCTGAGAGCTCTAAGTGTGGTGGAGCTGAGCCAGAACATGGATCAGATCAAGAAGATAGCTCCCCAGCAGGTTCAGATGAAGAAGAACCTGAAGAAGACTTGGAAACAAAATTCTTCTATCTTTTCCAGAATTCTCTAAGGACGGAGCAAGGACAGATGAATTTCCCACAAAAGTTAGTGTACAAGAAATGGCCAAAGGGAGATCCAAGCAAGTCAAAGAGCAAGATTGCCTCAAAGAGCCCTAGTACCTTTATTCTGATGAGGTCAACTTGCCCATATTTTGAAGGACAGAGATTTGTTGAACCAAGCTGCTCTGACCCCAGATTTCAAAATGAAGATAAGAGAGGGGTCTATCATGAGATTGTCTCTCAGAAGAGAATTGTGGACAGTAAGATGATAGACTAAAAAGCCCTTACTGATGCTGGCCTGAGTGCCATTCCA'
p9
aS'CTCCTCAAAGGCCATCCAGAGCTGAATCTGATGAAGAATATGTGGCAGAGGAAGATGAGCCTGAGAGCTCTAAGTGTGGTGGAGCTGAGCCAGAACATGGATCAGATCAAGAAGATAGCTCCCCAGCAGGTTCAGATGAAGAAGAACCTGAAGAAGACTTGGAAACAAAATTCTTCTATCTTTTCCAGAATTCTCTAAGGACGGAGCAAGGACAGATGAATTTCCCACAAAAGTTAGTGTACAAGAAATGGCCAAAGGGAGATCCAAGCAAGTCAAAGAGCAAGATTGCCTCAAAGAGCCCTAGTACCTTTATTCTGATGAGGTCAACTTGCCCATATTTTGAAGGACAGAGATTTGTTGAACCAAGCTGCTCTGACCCCAGATTTCAAAATGAAGATAAGAGAGGGGTCTATCATGAGATTGTCTCTCAGAAGAGAATTGTGGACAGTAAGATGATAGACTAAAAAGCCCTTACTGATGCTGGCCTGAGTGCCATTCCA'
p10
aS'CTCCTCAAAGGCCATCCAGAGCTGAATCTGATGAAGAATATGTGGCAGAGGAAGATGAGCCTGAGAGCTCTAAGTGTGGTGGAGCTGAGCCAGAACATGGATCAGATCAAGAAGATAGCTCCCCAGCAGGTTCAGATGAAGAAGAACCTGAAGAAGACTTGGAAACAAAATTCTTCTATCTTTTCCAGAATTCTCTAAGGACGGAGCAAGGACAGATGAATTTCCCACAAAAGTTAGTGTACAAGAAATGGCCAAAGGGAGATCCAAGCAAGTCAAAGAGCAAGATTGCCTCAAAGAGCCCTAGTACCTTTATTCTGATGAGGTCAACTTGCCCATATTTTGAAGGACAGAGATTTGTTGAACCAAGCTGCTCTGACCCCAGATTTCAAAATGAAGATAAGAGAGGGGTCTATCATGAGATTGTCTCTCAGAAGAGAATTGTGGACAGTAAGATGATAGACTAAAAAGCCCTTACTGATGCTGGCCTGAGTGCCATTCCA'
p11
aS'CTCCTCAAAGGCCATCCAGAGCTGAATCTGATGAAGAATATGTGGCAGAGGAAGATGAGCCTGAGAGCTCTAAGTGTGGTGGAGCTGAGCCAGAACATGGATCAGATCAAGAAGATAGCTCCCCAGCAGGTTCAGATGAAGAAGAACCTGAAGAAGACTTGGAAACAAAATTCTTCTATCTTTTCCAGAATTCTCTAAGGACGGAGCAAGGACAGATGAATTTCCCACAAAAGTTAGTGTACAAGAAATGGCCAAAGGGAGATCCAAGCAAGTCAAAGAGCAAGATTGCCTCAAAGAGCCCTAGTACCTTTATTCTGATGAGGTCAACTTGCCCATATTTTGAAGGACAGAGATTTGTTGAACCAAGCTGCTCTGACCCCAGATTTCAAAATGAAGATAAGAGAGGGGTCTATCATGAGATTGTCTCTCAGAAGAGAATTGTGGACAGTAAGATGATAGACTAAAAAGCCCTTACTGATGCTGGCCTGAGTGCCATTCCA'
p12
aS'CTCCTCAAAGGCCATCCAGAGCTGAATCTGATGAAGAATATGTGGCAGAGGAAGATGAGCCTGAGAGCTCTAAGTGTGGTGGAGCTGAGCCAGAACATGGATCAGATCAAGAAGATAGCTCCCCAGCAGGTTCAGATGAAGAAGAACCTGAAGAAGACTTGGAAACAAAATTCTTCTATCTTTTCCAGAATTCTCTAAGGACGGAGCAAGGACAGATGAATTTCCCACAAAAGTTAGTGTACAAGAAATGGCCAAAGGGAGATCCAAGCAAGTCAAAGAGCAAGATTGCCTCAAAGAGCCCTAGTACCTTTATTCTGATGAGGTCAACTTGCCCATATTTTGAAGGACAGAGATTTGTTGAACCAAGCTGCTCTGACCCCAGATTTCAAAATGAAGATAAGAGAGGGGTCTATCATGAGATTGTCTCTCAGAAGAGAATTGTGGACAGTAAGATGATAGACTAAAAAGCCCTTACTGATGCTGGCCTGAGTGCCATTCCA'
p13
aS'CTCCTCAAAGGCCATCCAGAGCTGAATCTGATGAAGAATATGTGGCAGAGGAAGATGAGCCTGAGAGCTCTAAGTGTGGTGGAGCTGAGCCAGAACATGGATCAGATCAAGAAGATAGCTCCCCAGCAGGTTCAGATGAAGAAGAACCTGAAGAAGACTTGGAAACAAAATTCTTCTATCTTTTCCAGAATTCTCTAAGGACGGAGCAAGGACAGATGAATTTCCCACAAAAGTTAGTGTACAAGAAATGGCCAAAGGGAGATCCAAGCAAGTCAAAGAGCAAGATTGCCTCAAAGAGCCCTAGTACCTTTATTCTGATGAGGTCAACTTGCCCATATTTTGAAGGACAGAGATTTGTTGAACCAAGCTGCTCTGACCCCAGATTTCAAAATGAAGATAAGAGAGGGGTCTATCATGAGATTGTCTCTCAGAAGAGAATTGTGGACAGTAAGATGATAGACTAAAAAGCCCTTACTGATGCTGGCCTGAGTGCCATTCCA'
p14
aS'CTCCTCAAAGGCCATCCAGAGCTGAATCTGATGAAGAATATGTGGCAGAGGAAGATGAGCCTGAGAGCTCTAAGTGTGGTGGAGCTGAGCCAGAACATGGATCAGATCAAGAAGATAGCTCCCCAGCAGGTTCAGATGAAGAAGAACCTGAAGAAGACTTGGAAACAAAATTCTTCTATCTTTTCCAGAATTCTCTAAGGACGGAGCAAGGACAGATGAATTTCCCACAAAAGTTAGTGTACAAGAAATGGCCAAAGGGAGATCCAAGCAAGTCAAAGAGCAAGATTGCCTCAAAGAGCCCTAGTACCTTTATTCTGATGAGGTCAACTTGCCCATATTTTGAAGGACAGAGATTTGTTGAACCAAGCTGCTCTGACCCCAGATTTCAAAATGAAGATAAGAGAGGGGTCTATCATGAGATTGTCTCTCAGAAGAGAATTGTGGACAGTAAGATGATAGACTAAAAAGCCCTTACTGATGCTGGCCTGAGTGCCATTCCA'
p15
aS'CTCCTCAAAGGCCATCCAGAGCTGAATCTGATGAAGAATATGTGGCAGAGGAAGATGAGCCTGAGAGCTCTAAGTGTGGTGGAGCTGAGCCAGAACATGGATCAGATCAAGAAGATAGCTCCCCAGCAGGTTCAGATGAAGAAGAACCTGAAGAAGACTTGGAAACAAAATTCTTCTATCTTTTCCAGAATTCTCTAAGGACGGAGCAAGGACAGATGAATTTCCCACAAAAGTTAGTGTACAAGAAATGGCCAAAGGGAGATCCAAGCAAGTCAAAGAGCAAGATTGCCTCAAAGAGCCCTAGTACCTTTATTCTGATGAGGTCAACTTGCCCATATTTTGAAGGACAGAGATTTGTTGAACCAAGCTGCTCTGACCCCAGATTTCAAAATGAAGATAAGAGAGGGGTCTATCATGAGATTGTCTCTCAGAAGAGAATTGTGGACAGTAAGATGATAGACTAAAAAGCCCTTACTGATGCTGGCCTGAGTGCCATTCCA'
p16
aS'CTCCTCAAAGGCCATCCAGAGCTGAATCTGATGAAGAATATGTGGCAGAGGAAGATGAGCCTGAGAGCTCTAAGTGTGGTGGAGCTGAGCCAGAACATGGATCAGATCAAGAAGATAGCTCCCCAGCAGGTTCAGATGAAGAAGAACCTGAAGAAGACTTGGAAACAAAATTCTTCTATCTTTTCCAGAATTCTCTAAGGACGGAGCAAGGACAGATGAATTTCCCACAAAAGTTAGTGTACAAGAAATGGCCAAAGGGAGATCCAAGCAAGTCAAAGAGCAAGATTGCCTCAAAGAGCCCTAGTACCTTTATTCTGATGAGGTCAACTTGCCCATATTTTGAAGGACAGAGATTTGTTGAACCAAGCTGCTCTGACCCCAGATTTCAAAATGAAGATAAGAGAGGGGTCTATCATGAGATTGTCTCTCAGAAGAGAATTGTGGACAGTAAGATGATAGACTAAAAAGCCCTTACTGATGCTGGCCTGAGTGCCATTCCA'
p17
aS'CTCCTCAAAGGCCATCCAGAGCTGAATCTGATGAAGAATATGTGGCAGAGGAAGATGAGCCTGAGAGCTCTAAGTGTGGTGGAGCTGAGCCAGAACATGGATCAGATCAAGAAGATAGCTCCCCAGCAGGTTCAGATGAAGAAGAACCTGAAGAAGACTTGGAAACAAAATTCTTCTATCTTTTCCAGAATTCTCTAAGGACGGAGCAAGGACAGATGAATTTCCCACAAAAGTTAGTGTACAAGAAATGGCCAAAGGGAGATCCAAGCAAGTCAAAGAGCAAGATTGCCTCAAAGAGCCCTAGTACCTTTATTCTGATGAGGTCAACTTGCCCATATTTTGAAGGACAGAGATTTGTTGAACCAAGCTGCTCTGACCCCAGATTTCAAAATGAAGATAAGAGAGGGGTCTATCATGAGATTGTCTCTCAGAAGAGAATTGTGGACAGTAAGATGATAGACTAAAAAGCCCTTACTGATGCTGGCCTGAGTGCCATTCCA'
p18
aS'CTCCTCAAAGGCCATCCAGAGCTGAATCTGATGAAGAATATGTGGCAGAGGAAGATGAGCCTGAGAGCTCTAAGTGTGGTGGAGCTGAGCCAGAACATGGATCAGATCAAGAAGATAGCTCCCCAGCAGGTTCAGATGAAGAAGAACCTGAAGAAGACTTGGAAACAAAATTCTTCTATCTTTTCCAGAATTCTCTAAGGACGGAGCAAGGACAGATGAATTTCCCACAAAAGTTAGTGTACAAGAAATGGCCAAAGGGAGATCCAAGCAAGTCAAAGAGCAAGATTGCCTCAAAGAGCCCTAGTACCTTTATTCTGATGAGGTCAACTTGCCCATATTTTGAAGGACAGAGATTTGTTGAACCAAGCTGCTCTGACCCCAGATTTCAAAATGAAGATAAGAGAGGGGTCTATCATGAGATTGTCTCTCAGAAGAGAATTGTGGACAGTAAGATGATAGACTAAAAAGCCCTTACTGATGCTGGCCTGAGTGCCATTCCA'
p19
aS'CTCCTCAAAGGCCATCCAGAGCTGAATCTGATGAAGAATATGTGGCAGAGGAAGATGAGCCTGAGAGCTCTAAGTGTGGTGGAGCTGAGCCAGAACATGGATCAGATCAAGAAGATAGCTCCCCAGCAGGTTCAGATGAAGAAGAACCTGAAGAAGACTTGGAAACAAAATTCTTCTATCTTTTCCAGAATTCTCTAAGGACGGAGCAAGGACAGATGAATTTCCCACAAAAGTTAGTGTACAAGAAATGGCCAAAGGGAGATCCAAGCAAGTCAAAGAGCAAGATTGCCTCAAAGAGCCCTAGTACCTTTATTCTGATGAGGTCAACTTGCCCATATTTTGAAGGACAGAGATTTGTTGAACCAAGCTGCTCTGACCCCAGATTTCAAAATGAAGATAAGAGAGGGGTCTATCATGAGATTGTCTCTCAGAAGAGAATTGTGGACAGTAAGATGATAGACTAAAAAGCCCTTACTGATGCTGGCCTGAGTGCCATTCCA'
p20
aS'CTCCTCAAAGGCCATCCAGAGCTGAATCTGATGAAGAATATGTGGCAGAGGAAGATGAGCCTGAGAGCTCTAAGTGTGGTGGAGCTGAGCCAGAACATGGATCAGATCAAGAAGATAGCTCCCCAGCAGGTTCAGATGAAGAAGAACCTGAAGAAGACTTGGAAACAAAATTCTTCTATCTTTTCCAGAATTCTCTAAGGACGGAGCAAGGACAGATGAATTTCCCACAAAAGTTAGTGTACAAGAAATGGCCAAAGGGAGATCCAAGCAAGTCAAAGAGCAAGATTGCCTCAAAGAGCCCTAGTACCTTTATTCTGATGAGGTCAACTTGCCCATATTTTGAAGGACAGAGATTTGTTGAACCAAGCTGCTCTGACCCCAGATTTCAAAATGAAGATAAGAGAGGGGTCTATCATGAGATTGTCTCTCAGAAGAGAATTGTGGACAGTAAGATGATAGACTAAAAAGCCCTTACTGATGCTGGCCTGAGTGCCATTCCA'
p21
aS'CTCCTCAAAGGCCATCCAGAGCTGAATCTGATGAAGAATATGTGGCAGAGGAAGATGAGCCTGAGAGCTCTAAGTGTGGTGGAGCTGAGCCAGAACATGGATCAGATCAAGAAGATAGCTCCCCAGCAGGTTCAGATGAAGAAGAACCTGAAGAAGACTTGGAAACAAAATTCTTCTATCTTTTCCAGAATTCTCTAAGGACGGAGCAAGGACAGATGAATTTCCCACAAAAGTTAGTGTACAAGAAATGGCCAAAGGGAGATCCAAGCAAGTCAAAGAGCAAGATTGCCTCAAAGAGCCCTAGTACCTTTATTCTGATGAGGTCAACTTGCCCATATTTTGAAGGACAGAGATTTGTTGAACCAAGCTGCTCTGACCCCAGATTTCAAAATGAAGATAAGAGAGGGGTCTATCATGAGATTGTCTCTCAGAAGAGAATTGTGGACAGTAAGATGATAGACTAAAAAGCCCTTACTGATGCTGGCCTGAGTGCCATTCCA'
p22
aS'CTCCTCAAAGGCCATCCAGAGCTGAATCTGATGAAGAATATGTGGCAGAGGAAGATGAGCCTGAGAGCTCTAAGTGTGGTGGAGCTGAGCCAGAACATGGATCAGATCAAGAAGATAGCTCCCCAGCAGGTTCAGATGAAGAAGAACCTGAAGAAGACTTGGAAACAAAATTCTTCTATCTTTTCCAGAATTCTCTAAGGACGGAGCAAGGACAGATGAATTTCCCACAAAAGTTAGTGTACAAGAAATGGCCAAAGGGAGATCCAAGCAAGTCAAAGAGCAAGATTGCCTCAAAGAGCCCTAGTACCTTTATTCTGATGAGGTCAACTTGCCCATATTTTGAAGGACAGAGATTTGTTGAACCAAGCTGCTCTGACCCCAGATTTCAAAATGAAGATAAGAGAGGGGTCTATCATGAGATTGTCTCTCAGAAGAGAATTGTGGACAGTAAGATGATAGACTAAAAAGCCCTTACTGATGCTGGCCTGAGTGCCATTCCA'
p23
aS'CTCCTCAAAGGCCATCCAGAGCTGAATCTGATGAAGAATATGTGGCAGAGGAAGATGAGCCTGAGAGCTCTAAGTGTGGTGGAGCTGAGCCAGAACATGGATCAGATCAAGAAGATAGCTCCCCAGCAGGTTCAGATGAAGAAGAACCTGAAGAAGACTTGGAAACAAAATTCTTCTATCTTTTCCAGAATTCTCTAAGGACGGAGCAAGGACAGATGAATTTCCCACAAAAGTTAGTGTACAAGAAATGGCCAAAGGGAGATCCAAGCAAGTCAAAGAGCAAGATTGCCTCAAAGAGCCCTAGTACCTTTATTCTGATGAGGTCAACTTGCCCATATTTTGAAGGACAGAGATTTGTTGAACCAAGCTGCTCTGACCCCAGATTTCAAAATGAAGATAAGAGAGGGGTCTATCATGAGATTGTCTCTCAGAAGAGAATTGTGGACAGTAAGATGATAGACTAAAAAGCCCTTACTGATGCTGGCCTGAGTGCCATTCCA'
p24
aS'CTCCTCAAAGGCCATCCAGAGCTGAATCTGATGAAGAATATGTGGCAGAGGAAGATGAGCCTGAGAGCTCTAAGTGTGGTGGAGCTGAGCCAGAACATGGATCAGATCAAGAAGATAGCTCCCCAGCAGGTTCAGATGAAGAAGAACCTGAAGAAGACTTGGAAACAAAATTCTTCTATCTTTTCCAGAATTCTCTAAGGACGGAGCAAGGACAGATGAATTTCCCACAAAAGTTAGTGTACAAGAAATGGCCAAAGGGAGATCCAAGCAAGTCAAAGAGCAAGATTGCCTCAAAGAGCCCTAGTACCTTTATTCTGATGAGGTCAACTTGCCCATATTTTGAAGGACAGAGATTTGTTGAACCAAGCTGCTCTGACCCCAGATTTCAAAATGAAGATAAGAGAGGGGTCTATCATGAGATTGTCTCTCAGAAGAGAATTGTGGACAGTAAGATGATAGACTAAAAAGCCCTTACTGATGCTGGCCTGAGTGCCATTCCA'
p25
aS'CTCCTCAAAGGCCATCCAGAGCTGAATCTGATGAAGAATATGTGGCAGAGGAAGATGAGCCTGAGAGCTCTAAGTGTGGTGGAGCTGAGCCAGAACATGGATCAGATCAAGAAGATAGCTCCCCAGCAGGTTCAGATGAAGAAGAACCTGAAGAAGACTTGGAAACAAAATTCTTCTATCTTTTCCAGAATTCTCTAAGGACGGAGCAAGGACAGATGAATTTCCCACAAAAGTTAGTGTACAAGAAATGGCCAAAGGGAGATCCAAGCAAGTCAAAGAGCAAGATTGCCTCAAAGAGCCCTAGTACCTTTATTCTGATGAGGTCAACTTGCCCATATTTTGAAGGACAGAGATTTGTTGAACCAAGCTGCTCTGACCCCAGATTTCAAAATGAAGATAAGAGAGGGGTCTATCATGAGATTGTCTCTCAGAAGAGAATTGTGGACAGTAAGATGATAGACTAAAAAGCCCTTACTGATGCTGGCCTGAGTGCCATTCCA'
p26
aS'CTCCTCAAAGGCCATCCAGAGCTGAATCTGATGAAGAATATGTGGCAGAGGAAGATGAGCCTGAGAGCTCTAAGTGTGGTGGAGCTGAGCCAGAACATGGATCAGATCAAGAAGATAGCTCCCCAGCAGGTTCAGATGAAGAAGAACCTGAAGAAGACTTGGAAACAAAATTCTTCTATCTTTTCCAGAATTCTCTAAGGACGGAGCAAGGACAGATGAATTTCCCACAAAAGTTAGTGTACAAGAAATGGCCAAAGGGAGATCCAAGCAAGTCAAAGAGCAAGATTGCCTCAAAGAGCCCTAGTACCTTTATTCTGATGAGGTCAACTTGCCCATATTTTGAAGGACAGAGATTTGTTGAACCAAGCTGCTCTGACCCCAGATTTCAAAATGAAGATAAGAGAGGGGTCTATCATGAGATTGTCTCTCAGAAGAGAATTGTGGACAGTAAGATGATAGACTAAAAAGCCCTTACTGATGCTGGCCTGAGTGCCATTCCA'
p27
aS'CTCCTCAAAGGCCATCCAGAGCTGAATCTGATGAAGAATATGTGGCAGAGGAAGATGAGCCTGAGAGCTCTAAGTGTGGTGGAGCTGAGCCAGAACATGGATCAGATCAAGAAGATAGCTCCCCAGCAGGTTCAGATGAAGAAGAACCTGAAGAAGACTTGGAAACAAAATTCTTCTATCTTTTCCAGAATTCTCTAAGGACGGAGCAAGGACAGATGAATTTCCCACAAAAGTTAGTGTACAAGAAATGGCCAAAGGGAGATCCAAGCAAGTCAAAGAGCAAGATTGCCTCAAAGAGCCCTAGTACCTTTATTCTGATGAGGTCAACTTGCCCATATTTTGAAGGACAGAGATTTGTTGAACCAAGCTGCTCTGACCCCAGATTTCAAAATGAAGATAAGAGAGGGGTCTATCATGAGATTGTCTCTCAGAAGAGAATTGTGGACAGTAAGATGATAGACTAAAAAGCCCTTACTGATGCTGGCCTGAGTGCCATTCCA'
p28
aS'CTCCTCAAAGGCCATCCAGAGCTGAATCTGATGAAGAATATGTGGCAGAGGAAGATGAGCCTGAGAGCTCTAAGTGTGGTGGAGCTGAGCCAGAACATGGATCAGATCAAGAAGATAGCTCCCCAGCAGGTTCAGATGAAGAAGAACCTGAAGAAGACTTGGAAACAAAATTCTTCTATCTTTTCCAGAATTCTCTAAGGACGGAGCAAGGACAGATGAATTTCCCACAAAAGTTAGTGTACAAGAAATGGCCAAAGGGAGATCCAAGCAAGTCAAAGAGCAAGATTGCCTCAAAGAGCCCTAGTACCTTTATTCTGATGAGGTCAACTTGCCCATATTTTGAAGGACAGAGATTTGTTGAACCAAGCTGCTCTGACCCCAGATTTCAAAATGAAGATAAGAGAGGGGTCTATCATGAGATTGTCTCTCAGAAGAGAATTGTGGACAGTAAGATGATAGACTAAAAAGCCCTTACTGATGCTGGCCTGAGTGCCATTCCA'
p29
aS'CTCCTCAAAGGCCATCCAGAGCTGAATCTGATGAAGAATATGTGGCAGAGGAAGATGAGCCTGAGAGCTCTAAGTGTGGTGGAGCTGAGCCAGAACATGGATCAGATCAAGAAGATAGCTCCCCAGCAGGTTCAGATGAAGAAGAACCTGAAGAAGACTTGGAAACAAAATTCTTCTATCTTTTCCAGAATTCTCTAAGGACGGAGCAAGGACAGATGAATTTCCCACAAAAGTTAGTGTACAAGAAATGGCCAAAGGGAGATCCAAGCAAGTCAAAGAGCAAGATTGCCTCAAAGAGCCCTAGTACCTTTATTCTGATGAGGTCAACTTGCCCATATTTTGAAGGACAGAGATTTGTTGAACCAAGCTGCTCTGACCCCAGATTTCAAAATGAAGATAAGAGAGGGGTCTATCATGAGATTGTCTCTCAGAAGAGAATTGTGGACAGTAAGATGATAGACTAAAAAGCCCTTACTGATGCTGGCCTGAGTGCCATTCCA'
p30
aS'CTCCTCAAAGGCCATCCAGAGCTGAATCTGATGAAGAATATGTGGCAGAGGAAGATGAGCCTGAGAGCTCTAAGTGTGGTGGAGCTGAGCCAGAACATGGATCAGATCAAGAAGATAGCTCCCCAGCAGGTTCAGATGAAGAAGAACCTGAAGAAGACTTGGAAACAAAATTCTTCTATCTTTTCCAGAATTCTCTAAGGACGGAGCAAGGACAGATGAATTTCCCACAAAAGTTAGTGTACAAGAAATGGCCAAAGGGAGATCCAAGCAAGTCAAAGAGCAAGATTGCCTCAAAGAGCCCTAGTACCTTTATTCTGATGAGGTCAACTTGCCCATATTTTGAAGGACAGAGATTTGTTGAACCAAGCTGCTCTGACCCCAGATTTCAAAATGAAGATAAGAGAGGGGTCTATCATGAGATTGTCTCTCAGAAGAGAATTGTGGACAGTAAGATGATAGACTAAAAAGCCCTTACTGATGCTGGCCTGAGTGCCATTCCA'
p31
aS'CTCCTCAAAGGCCATCCAGAGCTGAATCTGATGAAGAATATGTGGCAGAGGAAGATGAGCCTGAGAGCTCTAAGTGTGGTGGAGCTGAGCCAGAACATGGATCAGATCAAGAAGATAGCTCCCCAGCAGGTTCAGATGAAGAAGAACCTGAAGAAGACTTGGAAACAAAATTCTTCTATCTTTTCCAGAATTCTCTAAGGACGGAGCAAGGACAGATGAATTTCCCACAAAAGTTAGTGTACAAGAAATGGCCAAAGGGAGATCCAAGCAAGTCAAAGAGCAAGATTGCCTCAAAGAGCCCTAGTACCTTTATTCTGATGAGGTCAACTTGCCCATATTTTGAAGGACAGAGATTTGTTGAACCAAGCTGCTCTGACCCCAGATTTCAAAATGAAGATAAGAGAGGGGTCTATCATGAGATTGTCTCTCAGAAGAGAATTGTGGACAGTAAGATGATAGACTAAAAAGCCCTTACTGATGCTGGCCTGAGTGCCATTCCA'
p32
aS'CTCCTCAAAGGCCATCCAGAGCTGAATCTGATGAAGAATATGTGGCAGAGGAAGATGAGCCTGAGAGCTCTAAGTGTGGTGGAGCTGAGCCAGAACATGGATCAGATCAAGAAGATAGCTCCCCAGCAGGTTCAGATGAAGAAGAACCTGAAGAAGACTTGGAAACAAAATTCTTCTATCTTTTCCAGAATTCTCTAAGGACGGAGCAAGGACAGATGAATTTCCCACAAAAGTTAGTGTACAAGAAATGGCCAAAGGGAGATCCAAGCAAGTCAAAGAGCAAGATTGCCTCAAAGAGCCCTAGTACCTTTATTCTGATGAGGTCAACTTGCCCATATTTTGAAGGACAGAGATTTGTTGAACCAAGCTGCTCTGACCCCAGATTTCAAAATGAAGATAAGAGAGGGGTCTATCATGAGATTGTCTCTCAGAAGAGAATTGTGGACAGTAAGATGATAGACTAAAAAGCCCTTACTGATGCTGGCCTGAGTGCCATTCCA'
p33
aS'CTCCTCAAAGGCCATCCAGAGCTGAATCTGATGAAGAATATGTGGCAGAGGAAGATGAGCCTGAGAGCTCTAAGTGTGGTGGAGCTGAGCCAGAACATGGATCAGATCAAGAAGATAGCTCCCCAGCAGGTTCAGATGAAGAAGAACCTGAAGAAGACTTGGAAACAAAATTCTTCTATCTTTTCCAGAATTCTCTAAGGACGGAGCAAGGACAGATGAATTTCCCACAAAAGTTAGTGTACAAGAAATGGCCAAAGGGAGATCCAAGCAAGTCAAAGAGCAAGATTGCCTCAAAGAGCCCTAGTACCTTTATTCTGATGAGGTCAACTTGCCCATATTTTGAAGGACAGAGATTTGTTGAACCAAGCTGCTCTGACCCCAGATTTCAAAATGAAGATAAGAGAGGGGTCTATCATGAGATTGTCTCTCAGAAGAGAATTGTGGACAGTAAGATGATAGACTAAAAAGCCCTTACTGATGCTGGCCTGAGTGCCATTCCA'
p34
aS'CTCCTCAAAGGCCATCCAGAGCTGAATCTGATGAAGAATATGTGGCAGAGGAAGATGAGCCTGAGAGCTCTAAGTGTGGTGGAGCTGAGCCAGAACATGGATCAGATCAAGAAGATAGCTCCCCAGCAGGTTCAGATGAAGAAGAACCTGAAGAAGACTTGGAAACAAAATTCTTCTATCTTTTCCAGAATTCTCTAAGGACGGAGCAAGGACAGATGAATTTCCCACAAAAGTTAGTGTACAAGAAATGGCCAAAGGGAGATCCAAGCAAGTCAAAGAGCAAGATTGCCTCAAAGAGCCCTAGTACCTTTATTCTGATGAGGTCAACTTGCCCATATTTTGAAGGACAGAGATTTGTTGAACCAAGCTGCTCTGACCCCAGATTTCAAAATGAAGATAAGAGAGGGGTCTATCATGAGATTGTCTCTCAGAAGAGAATTGTGGACAGTAAGATGATAGACTAAAAAGCCCTTACTGATGCTGGCCTGAGTGCCATTCCA'
p35
aS'CTCCTCAAAGGCCATCCAGAGCTGAATCTGATGAAGAATATGTGGCAGAGGAAGATGAGCCTGAGAGCTCTAAGTGTGGTGGAGCTGAGCCAGAACATGGATCAGATCAAGAAGATAGCTCCCCAGCAGGTTCAGATGAAGAAGAACCTGAAGAAGACTTGGAAACAAAATTCTTCTATCTTTTCCAGAATTCTCTAAGGACGGAGCAAGGACAGATGAATTTCCCACAAAAGTTAGTGTACAAGAAATGGCCAAAGGGAGATCCAAGCAAGTCAAAGAGCAAGATTGCCTCAAAGAGCCCTAGTACCTTTATTCTGATGAGGTCAACTTGCCCATATTTTGAAGGACAGAGATTTGTTGAACCAAGCTGCTCTGACCCCAGATTTCAAAATGAAGATAAGAGAGGGGTCTATCATGAGATTGTCTCTCAGAAGAGAATTGTGGACAGTAAGATGATAGACTAAAAAGCCCTTACTGATGCTGGCCTGAGTGCCATTCCA'
p36
aS'CTCCTCAAAGGCCATCCAGAGCTGAATCTGATGAAGAATATGTGGCAGAGGAAGATGAGCCTGAGAGCTCTAAGTGTGGTGGAGCTGAGCCAGAACATGGATCAGATCAAGAAGATAGCTCCCCAGCAGGTTCAGATGAAGAAGAACCTGAAGAAGACTTGGAAACAAAATTCTTCTATCTTTTCCAGAATTCTCTAAGGACGGAGCAAGGACAGATGAATTTCCCACAAAAGTTAGTGTACAAGAAATGGCCAAAGGGAGATCCAAGCAAGTCAAAGAGCAAGATTGCCTCAAAGAGCCCTAGTACCTTTATTCTGATGAGGTCAACTTGCCCATATTTTGAAGGACAGAGATTTGTTGAACCAAGCTGCTCTGACCCCAGATTTCAAAATGAAGATAAGAGAGGGGTCTATCATGAGATTGTCTCTCAGAAGAGAATTGTGGACAGTAAGATGATAGACTAAAAAGCCCTTACTGATGCTGGCCTGAGTGCCATTCCA'
p37
aS'CTCCTCAAAGGCCATCCAGAGCTGAATCTGATGAAGAATATGTGGCAGAGGAAGATGAGCCTGAGAGCTCTAAGTGTGGTGGAGCTGAGCCAGAACATGGATCAGATCAAGAAGATAGCTCCCCAGCAGGTTCAGATGAAGAAGAACCTGAAGAAGACTTGGAAACAAAATTCTTCTATCTTTTCCAGAATTCTCTAAGGACGGAGCAAGGACAGATGAATTTCCCACAAAAGTTAGTGTACAAGAAATGGCCAAAGGGAGATCCAAGCAAGTCAAAGAGCAAGATTGCCTCAAAGAGCCCTAGTACCTTTATTCTGATGAGGTCAACTTGCCCATATTTTGAAGGACAGAGATTTGTTGAACCAAGCTGCTCTGACCCCAGATTTCAAAATGAAGATAAGAGAGGGGTCTATCATGAGATTGTCTCTCAGAAGAGAATTGTGGACAGTAAGATGATAGACTAAAAAGCCCTTACTGATGCTGGCCTGAGTGCCATTCCA'
p38
aS'CTCCTCAAAGGCCATCCAGAGCTGAATCTGATGAAGAATATGTGGCAGAGGAAGATGAGCCTGAGAGCTCTAAGTGTGGTGGAGCTGAGCCAGAACATGGATCAGATCAAGAAGATAGCTCCCCAGCAGGTTCAGATGAAGAAGAACCTGAAGAAGACTTGGAAACAAAATTCTTCTATCTTTTCCAGAATTCTCTAAGGACGGAGCAAGGACAGATGAATTTCCCACAAAAGTTAGTGTACAAGAAATGGCCAAAGGGAGATCCAAGCAAGTCAAAGAGCAAGATTGCCTCAAAGAGCCCTAGTACCTTTATTCTGATGAGGTCAACTTGCCCATATTTTGAAGGACAGAGATTTGTTGAACCAAGCTGCTCTGACCCCAGATTTCAAAATGAAGATAAGAGAGGGGTCTATCATGAGATTGTCTCTCAGAAGAGAATTGTGGACAGTAAGATGATAGACTAAAAAGCCCTTACTGATGCTGGCCTGAGTGCCATTCCA'
p39
aS'CTCCTCAAAGGCCATCCAGAGCTGAATCTGATGAAGAATATGTGGCAGAGGAAGATGAGCCTGAGAGCTCTAAGTGTGGTGGAGCTGAGCCAGAACATGGATCAGATCAAGAAGATAGCTCCCCAGCAGGTTCAGATGAAGAAGAACCTGAAGAAGACTTGGAAACAAAATTCTTCTATCTTTTCCAGAATTCTCTAAGGACGGAGCAAGGACAGATGAATTTCCCACAAAAGTTAGTGTACAAGAAATGGCCAAAGGGAGATCCAAGCAAGTCAAAGAGCAAGATTGCCTCAAAGAGCCCTAGTACCTTTATTCTGATGAGGTCAACTTGCCCATATTTTGAAGGACAGAGATTTGTTGAACCAAGCTGCTCTGACCCCAGATTTCAAAATGAAGATAAGAGAGGGGTCTATCATGAGATTGTCTCTCAGAAGAGAATTGTGGACAGTAAGATGATAGACTAAAAAGCCCTTACTGATGCTGGCCTGAGTGCCATTCCA'
p40
aS'CTCCTCAAAGGCCATCCAGAGCTGAATCTGATGAAGAATATGTGGCAGAGGAAGATGAGCCTGAGAGCTCTAAGTGTGGTGGAGCTGAGCCAGAACATGGATCAGATCAAGAAGATAGCTCCCCAGCAGGTTCAGATGAAGAAGAACCTGAAGAAGACTTGGAAACAAAATTCTTCTATCTTTTCCAGAATTCTCTAAGGACGGAGCAAGGACAGATGAATTTCCCACAAAAGTTAGTGTACAAGAAATGGCCAAAGGGAGATCCAAGCAAGTCAAAGAGCAAGATTGCCTCAAAGAGCCCTAGTACCTTTATTCTGATGAGGTCAACTTGCCCATATTTTGAAGGACAGAGATTTGTTGAACCAAGCTGCTCTGACCCCAGATTTCAAAATGAAGATAAGAGAGGGGTCTATCATGAGATTGTCTCTCAGAAGAGAATTGTGGACAGTAAGATGATAGACTAAAAAGCCCTTACTGATGCTGGCCTGAGTGCCATTCCA'
p41
aS'CTCCTCAAAGGCCATCCAGAGCTGAATCTGATGAAGAATATGTGGCAGAGGAAGATGAGCCTGAGAGCTCTAAGTGTGGTGGAGCTGAGCCAGAACATGGATCAGATCAAGAAGATAGCTCCCCAGCAGGTTCAGATGAAGAAGAACCTGAAGAAGACTTGGAAACAAAATTCTTCTATCTTTTCCAGAATTCTCTAAGGACGGAGCAAGGACAGATGAATTTCCCACAAAAGTTAGTGTACAAGAAATGGCCAAAGGGAGATCCAAGCAAGTCAAAGAGCAAGATTGCCTCAAAGAGCCCTAGTACCTTTATTCTGATGAGGTCAACTTGCCCATATTTTGAAGGACAGAGATTTGTTGAACCAAGCTGCTCTGACCCCAGATTTCAAAATGAAGATAAGAGAGGGGTCTATCATGAGATTGTCTCTCAGAAGAGAATTGTGGACAGTAAGATGATAGACTAAAAAGCCCTTACTGATGCTGGCCTGAGTGCCATTCCA'
p42
aS'CTCCTCAAAGGCCATCCAGAGCTGAATCTGATGAAGAATATGTGGCAGAGGAAGATGAGCCTGAGAGCTCTAAGTGTGGTGGAGCTGAGCCAGAACATGGATCAGATCAAGAAGATAGCTCCCCAGCAGGTTCAGATGAAGAAGAACCTGAAGAAGACTTGGAAACAAAATTCTTCTATCTTTTCCAGAATTCTCTAAGGACGGAGCAAGGACAGATGAATTTCCCACAAAAGTTAGTGTACAAGAAATGGCCAAAGGGAGATCCAAGCAAGTCAAAGAGCAAGATTGCCTCAAAGAGCCCTAGTACCTTTATTCTGATGAGGTCAACTTGCCCATATTTTGAAGGACAGAGATTTGTTGAACCAAGCTGCTCTGACCCCAGATTTCAAAATGAAGATAAGAGAGGGGTCTATCATGAGATTGTCTCTCAGAAGAGAATTGTGGACAGTAAGATGATAGACTAAAAAGCCCTTACTGATGCTGGCCTGAGTGCCATTCCA'
p43
aS'CTCCTCAAAGGCCATCCAGAGCTGAATCTGATGAAGAATATGTGGCAGAGGAAGATGAGCCTGAGAGCTCTAAGTGTGGTGGAGCTGAGCCAGAACATGGATCAGATCAAGAAGATAGCTCCCCAGCAGGTTCAGATGAAGAAGAACCTGAAGAAGACTTGGAAACAAAATTCTTCTATCTTTTCCAGAATTCTCTAAGGACGGAGCAAGGACAGATGAATTTCCCACAAAAGTTAGTGTACAAGAAATGGCCAAAGGGAGATCCAAGCAAGTCAAAGAGCAAGATTGCCTCAAAGAGCCCTAGTACCTTTATTCTGATGAGGTCAACTTGCCCATATTTTGAAGGACAGAGATTTGTTGAACCAAGCTGCTCTGACCCCAGATTTCAAAATGAAGATAAGAGAGGGGTCTATCATGAGATTGTCTCTCAGAAGAGAATTGTGGACAGTAAGATGATAGACTAAAAAGCCCTTACTGATGCTGGCCTGAGTGCCATTCCA'
p44
aS'CTCCTCAAAGGCCATCCAGAGCTGAATCTGATGAAGAATATGTGGCAGAGGAAGATGAGCCTGAGAGCTCTAAGTGTGGTGGAGCTGAGCCAGAACATGGATCAGATCAAGAAGATAGCTCCCCAGCAGGTTCAGATGAAGAAGAACCTGAAGAAGACTTGGAAACAAAATTCTTCTATCTTTTCCAGAATTCTCTAAGGACGGAGCAAGGACAGATGAATTTCCCACAAAAGTTAGTGTACAAGAAATGGCCAAAGGGAGATCCAAGCAAGTCAAAGAGCAAGATTGCCTCAAAGAGCCCTAGTACCTTTATTCTGATGAGGTCAACTTGCCCATATTTTGAAGGACAGAGATTTGTTGAACCAAGCTGCTCTGACCCCAGATTTCAAAATGAAGATAAGAGAGGGGTCTATCATGAGATTGTCTCTCAGAAGAGAATTGTGGACAGTAAGATGATAGACTAAAAAGCCCTTACTGATGCTGGCCTGAGTGCCATTCCA'
p45
aS'CTCCTCAAAGGCCATCCAGAGCTGAATCTGATGAAGAATATGTGGCAGAGGAAGATGAGCCTGAGAGCTCTAAGTGTGGTGGAGCTGAGCCAGAACATGGATCAGATCAAGAAGATAGCTCCCCAGCAGGTTCAGATGAAGAAGAACCTGAAGAAGACTTGGAAACAAAATTCTTCTATCTTTTCCAGAATTCTCTAAGGACGGAGCAAGGACAGATGAATTTCCCACAAAAGTTAGTGTACAAGAAATGGCCAAAGGGAGATCCAAGCAAGTCAAAGAGCAAGATTGCCTCAAAGAGCCCTAGTACCTTTATTCTGATGAGGTCAACTTGCCCATATTTTGAAGGACAGAGATTTGTTGAACCAAGCTGCTCTGACCCCAGATTTCAAAATGAAGATAAGAGAGGGGTCTATCATGAGATTGTCTCTCAGAAGAGAATTGTGGACAGTAAGATGATAGACTAAAAAGCCCTTACTGATGCTGGCCTGAGTGCCATTCCA'
p46
aS'CTCCTCAAAGGCCATCCAGAGCTGAATCTGATGAAGAATATGTGGCAGAGGAAGATGAGCCTGAGAGCTCTAAGTGTGGTGGAGCTGAGCCAGAACATGGATCAGATCAAGAAGATAGCTCCCCAGCAGGTTCAGATGAAGAAGAACCTGAAGAAGACTTGGAAACAAAATTCTTCTATCTTTTCCAGAATTCTCTAAGGACGGAGCAAGGACAGATGAATTTCCCACAAAAGTTAGTGTACAAGAAATGGCCAAAGGGAGATCCAAGCAAGTCAAAGAGCAAGATTGCCTCAAAGAGCCCTAGTACCTTTATTCTGATGAGGTCAACTTGCCCATATTTTGAAGGACAGAGATTTGTTGAACCAAGCTGCTCTGACCCCAGATTTCAAAATGAAGATAAGAGAGGGGTCTATCATGAGATTGTCTCTCAGAAGAGAATTGTGGACAGTAAGATGATAGACTAAAAAGCCCTTACTGATGCTGGCCTGAGTGCCATTCCA'
p47
aS'CTCCTCAAAGGCCATCCAGAGCTGAATCTGATGAAGAATATGTGGCAGAGGAAGATGAGCCTGAGAGCTCTAAGTGTGGTGGAGCTGAGCCAGAACATGGATCAGATCAAGAAGATAGCTCCCCAGCAGGTTCAGATGAAGAAGAACCTGAAGAAGACTTGGAAACAAAATTCTTCTATCTTTTCCAGAATTCTCTAAGGACGGAGCAAGGACAGATGAATTTCCCACAAAAGTTAGTGTACAAGAAATGGCCAAAGGGAGATCCAAGCAAGTCAAAGAGCAAGATTGCCTCAAAGAGCCCTAGTACCTTTATTCTGATGAGGTCAACTTGCCCATATTTTGAAGGACAGAGATTTGTTGAACCAAGCTGCTCTGACCCCAGATTTCAAAATGAAGATAAGAGAGGGGTCTATCATGAGATTGTCTCTCAGAAGAGAATTGTGGACAGTAAGATGATAGACTAAAAAGCCCTTACTGATGCTGGCCTGAGTGCCATTCCA'
p48
aS'CTCCTCAAAGGCCATCCAGAGCTGAATCTGATGAAGAATATGTGGCAGAGGAAGATGAGCCTGAGAGCTCTAAGTGTGGTGGAGCTGAGCCAGAACATGGATCAGATCAAGAAGATAGCTCCCCAGCAGGTTCAGATGAAGAAGAACCTGAAGAAGACTTGGAAACAAAATTCTTCTATCTTTTCCAGAATTCTCTAAGGACGGAGCAAGGACAGATGAATTTCCCACAAAAGTTAGTGTACAAGAAATGGCCAAAGGGAGATCCAAGCAAGTCAAAGAGCAAGATTGCCTCAAAGAGCCCTAGTACCTTTATTCTGATGAGGTCAACTTGCCCATATTTTGAAGGACAGAGATTTGTTGAACCAAGCTGCTCTGACCCCAGATTTCAAAATGAAGATAAGAGAGGGGTCTATCATGAGATTGTCTCTCAGAAGAGAATTGTGGACAGTAAGATGATAGACTAAAAAGCCCTTACTGATGCTGGCCTGAGTGCCATTCCA'
p49
aS'CTCCTCAAAGGCCATCCAGAGCTGAATCTGATGAAGAATATGTGGCAGAGGAAGATGAGCCTGAGAGCTCTAAGTGTGGTGGAGCTGAGCCAGAACATGGATCAGATCAAGAAGATAGCTCCCCAGCAGGTTCAGATGAAGAAGAACCTGAAGAAGACTTGGAAACAAAATTCTTCTATCTTTTCCAGAATTCTCTAAGGACGGAGCAAGGACAGATGAATTTCCCACAAAAGTTAGTGTACAAGAAATGGCCAAAGGGAGATCCAAGCAAGTCAAAGAGCAAGATTGCCTCAAAGAGCCCTAGTACCTTTATTCTGATGAGGTCAACTTGCCCATATTTTGAAGGACAGAGATTTGTTGAACCAAGCTGCTCTGACCCCAGATTTCAAAATGAAGATAAGAGAGGGGTCTATCATGAGATTGTCTCTCAGAAGAGAATTGTGGACAGTAAGATGATAGACTAAAAAGCCCTTACTGATGCTGGCCTGAGTGCCATTCCA'
p50
aS'CTCCTCAAAGGCCATCCAGAGCTGAATCTGATGAAGAATATGTGGCAGAGGAAGATGAGCCTGAGAGCTCTAAGTGTGGTGGAGCTGAGCCAGAACATGGATCAGATCAAGAAGATAGCTCCCCAGCAGGTTCAGATGAAGAAGAACCTGAAGAAGACTTGGAAACAAAATTCTTCTATCTTTTCCAGAATTCTCTAAGGACGGAGCAAGGACAGATGAATTTCCCACAAAAGTTAGTGTACAAGAAATGGCCAAAGGGAGATCCAAGCAAGTCAAAGAGCAAGATTGCCTCAAAGAGCCCTAGTACCTTTATTCTGATGAGGTCAACTTGCCCATATTTTGAAGGACAGAGATTTGTTGAACCAAGCTGCTCTGACCCCAGATTTCAAAATGAAGATAAGAGAGGGGTCTATCATGAGATTGTCTCTCAGAAGAGAATTGTGGACAGTAAGATGATAGACTAAAAAGCCCTTACTGATGCTGGCCTGAGTGCCATTCCA'
p51
aS'CTCCTCAAAGGCCATCCAGAGCTGAATCTGATGAAGAATATGTGGCAGAGGAAGATGAGCCTGAGAGCTCTAAGTGTGGTGGAGCTGAGCCAGAACATGGATCAGATCAAGAAGATAGCTCCCCAGCAGGTTCAGATGAAGAAGAACCTGAAGAAGACTTGGAAACAAAATTCTTCTATCTTTTCCAGAATTCTCTAAGGACGGAGCAAGGACAGATGAATTTCCCACAAAAGTTAGTGTACAAGAAATGGCCAAAGGGAGATCCAAGCAAGTCAAAGAGCAAGATTGCCTCAAAGAGCCCTAGTACCTTTATTCTGATGAGGTCAACTTGCCCATATTTTGAAGGACAGAGATTTGTTGAACCAAGCTGCTCTGACCCCAGATTTCAAAATGAAGATAAGAGAGGGGTCTATCATGAGATTGTCTCTCAGAAGAGAATTGTGGACAGTAAGATGATAGACTAAAAAGCCCTTACTGATGCTGGCCTGAGTGCCATTCCA'
p52
aS'CTCCTCAAAGGCCATCCAGAGCTGAATCTGATGAAGAATATGTGGCAGAGGAAGATGAGCCTGAGAGCTCTAAGTGTGGTGGAGCTGAGCCAGAACATGGATCAGATCAAGAAGATAGCTCCCCAGCAGGTTCAGATGAAGAAGAACCTGAAGAAGACTTGGAAACAAAATTCTTCTATCTTTTCCAGAATTCTCTAAGGACGGAGCAAGGACAGATGAATTTCCCACAAAAGTTAGTGTACAAGAAATGGCCAAAGGGAGATCCAAGCAAGTCAAAGAGCAAGATTGCCTCAAAGAGCCCTAGTACCTTTATTCTGATGAGGTCAACTTGCCCATATTTTGAAGGACAGAGATTTGTTGAACCAAGCTGCTCTGACCCCAGATTTCAAAATGAAGATAAGAGAGGGGTCTATCATGAGATTGTCTCTCAGAAGAGAATTGTGGACAGTAAGATGATAGACTAAAAAGCCCTTACTGATGCTGGCCTGAGTGCCATTCCA'
p53
aS'CTCCTCAAAGGCCATCCAGAGCTGAATCTGATGAAGAATATGTGGCAGAGGAAGATGAGCCTGAGAGCTCTAAGTGTGGTGGAGCTGAGCCAGAACATGGATCAGATCAAGAAGATAGCTCCCCAGCAGGTTCAGATGAAGAAGAACCTGAAGAAGACTTGGAAACAAAATTCTTCTATCTTTTCCAGAATTCTCTAAGGACGGAGCAAGGACAGATGAATTTCCCACAAAAGTTAGTGTACAAGAAATGGCCAAAGGGAGATCCAAGCAAGTCAAAGAGCAAGATTGCCTCAAAGAGCCCTAGTACCTTTATTCTGATGAGGTCAACTTGCCCATATTTTGAAGGACAGAGATTTGTTGAACCAAGCTGCTCTGACCCCAGATTTCAAAATGAAGATAAGAGAGGGGTCTATCATGAGATTGTCTCTCAGAAGAGAATTGTGGACAGTAAGATGATAGACTAAAAAGCCCTTACTGATGCTGGCCTGAGTGCCATTCCA'
p54
aS'CTCCTCAAAGGCCATCCAGAGCTGAATCTGATGAAGAATATGTGGCAGAGGAAGATGAGCCTGAGAGCTCTAAGTGTGGTGGAGCTGAGCCAGAACATGGATCAGATCAAGAAGATAGCTCCCCAGCAGGTTCAGATGAAGAAGAACCTGAAGAAGACTTGGAAACAAAATTCTTCTATCTTTTCCAGAATTCTCTAAGGACGGAGCAAGGACAGATGAATTTCCCACAAAAGTTAGTGTACAAGAAATGGCCAAAGGGAGATCCAAGCAAGTCAAAGAGCAAGATTGCCTCAAAGAGCCCTAGTACCTTTATTCTGATGAGGTCAACTTGCCCATATTTTGAAGGACAGAGATTTGTTGAACCAAGCTGCTCTGACCCCAGATTTCAAAATGAAGATAAGAGAGGGGTCTATCATGAGATTGTCTCTCAGAAGAGAATTGTGGACAGTAAGATGATAGACTAAAAAGCCCTTACTGATGCTGGCCTGAGTGCCATTCCA'
p55
aS'CTCCTCAAAGGCCATCCAGAGCTGAATCTGATGAAGAATATGTGGCAGAGGAAGATGAGCCTGAGAGCTCTAAGTGTGGTGGAGCTGAGCCAGAACATGGATCAGATCAAGAAGATAGCTCCCCAGCAGGTTCAGATGAAGAAGAACCTGAAGAAGACTTGGAAACAAAATTCTTCTATCTTTTCCAGAATTCTCTAAGGACGGAGCAAGGACAGATGAATTTCCCACAAAAGTTAGTGTACAAGAAATGGCCAAAGGGAGATCCAAGCAAGTCAAAGAGCAAGATTGCCTCAAAGAGCCCTAGTACCTTTATTCTGATGAGGTCAACTTGCCCATATTTTGAAGGACAGAGATTTGTTGAACCAAGCTGCTCTGACCCCAGATTTCAAAATGAAGATAAGAGAGGGGTCTATCATGAGATTGTCTCTCAGAAGAGAATTGTGGACAGTAAGATGATAGACTAAAAAGCCCTTACTGATGCTGGCCTGAGTGCCATTCCA'
p56
aS'CTCCTCAAAGGCCATCCAGAGCTGAATCTGATGAAGAATATGTGGCAGAGGAAGATGAGCCTGAGAGCTCTAAGTGTGGTGGAGCTGAGCCAGAACATGGATCAGATCAAGAAGATAGCTCCCCAGCAGGTTCAGATGAAGAAGAACCTGAAGAAGACTTGGAAACAAAATTCTTCTATCTTTTCCAGAATTCTCTAAGGACGGAGCAAGGACAGATGAATTTCCCACAAAAGTTAGTGTACAAGAAATGGCCAAAGGGAGATCCAAGCAAGTCAAAGAGCAAGATTGCCTCAAAGAGCCCTAGTACCTTTATTCTGATGAGGTCAACTTGCCCATATTTTGAAGGACAGAGATTTGTTGAACCAAGCTGCTCTGACCCCAGATTTCAAAATGAAGATAAGAGAGGGGTCTATCATGAGATTGTCTCTCAGAAGAGAATTGTGGACAGTAAGATGATAGACTAAAAAGCCCTTACTGATGCTGGCCTGAGTGCCATTCCA'
p57
aS'CTCCTCAAAGGCCATCCAGAGCTGAATCTGATGAAGAATATGTGGCAGAGGAAGATGAGCCTGAGAGCTCTAAGTGTGGTGGAGCTGAGCCAGAACATGGATCAGATCAAGAAGATAGCTCCCCAGCAGGTTCAGATGAAGAAGAACCTGAAGAAGACTTGGAAACAAAATTCTTCTATCTTTTCCAGAATTCTCTAAGGACGGAGCAAGGACAGATGAATTTCCCACAAAAGTTAGTGTACAAGAAATGGCCAAAGGGAGATCCAAGCAAGTCAAAGAGCAAGATTGCCTCAAAGAGCCCTAGTACCTTTATTCTGATGAGGTCAACTTGCCCATATTTTGAAGGACAGAGATTTGTTGAACCAAGCTGCTCTGACCCCAGATTTCAAAATGAAGATAAGAGAGGGGTCTATCATGAGATTGTCTCTCAGAAGAGAATTGTGGACAGTAAGATGATAGACTAAAAAGCCCTTACTGATGCTGGCCTGAGTGCCATTCCA'
p58
aS'CTCCTCAAAGGCCATCCAGAGCTGAATCTGATGAAGAATATGTGGCAGAGGAAGATGAGCCTGAGAGCTCTAAGTGTGGTGGAGCTGAGCCAGAACATGGATCAGATCAAGAAGATAGCTCCCCAGCAGGTTCAGATGAAGAAGAACCTGAAGAAGACTTGGAAACAAAATTCTTCTATCTTTTCCAGAATTCTCTAAGGACGGAGCAAGGACAGATGAATTTCCCACAAAAGTTAGTGTACAAGAAATGGCCAAAGGGAGATCCAAGCAAGTCAAAGAGCAAGATTGCCTCAAAGAGCCCTAGTACCTTTATTCTGATGAGGTCAACTTGCCCATATTTTGAAGGACAGAGATTTGTTGAACCAAGCTGCTCTGACCCCAGATTTCAAAATGAAGATAAGAGAGGGGTCTATCATGAGATTGTCTCTCAGAAGAGAATTGTGGACAGTAAGATGATAGACTAAAAAGCCCTTACTGATGCTGGCCTGAGTGCCATTCCA'
p59
aS'CTCCTCAAAGGCCATCCAGAGCTGAATCTGATGAAGAATATGTGGCAGAGGAAGATGAGCCTGAGAGCTCTAAGTGTGGTGGAGCTGAGCCAGAACATGGATCAGATCAAGAAGATAGCTCCCCAGCAGGTTCAGATGAAGAAGAACCTGAAGAAGACTTGGAAACAAAATTCTTCTATCTTTTCCAGAATTCTCTAAGGACGGAGCAAGGACAGATGAATTTCCCACAAAAGTTAGTGTACAAGAAATGGCCAAAGGGAGATCCAAGCAAGTCAAAGAGCAAGATTGCCTCAAAGAGCCCTAGTACCTTTATTCTGATGAGGTCAACTTGCCCATATTTTGAAGGACAGAGATTTGTTGAACCAAGCTGCTCTGACCCCAGATTTCAAAATGAAGATAAGAGAGGGGTCTATCATGAGATTGTCTCTCAGAAGAGAATTGTGGACAGTAAGATGATAGACTAAAAAGCCCTTACTGATGCTGGCCTGAGTGCCATTCCA'
p60
aS'CTCCTCAAAGGCCATCCAGAGCTGAATCTGATGAAGAATATGTGGCAGAGGAAGATGAGCCTGAGAGCTCTAAGTGTGGTGGAGCTGAGCCAGAACATGGATCAGATCAAGAAGATAGCTCCCCAGCAGGTTCAGATGAAGAAGAACCTGAAGAAGACTTGGAAACAAAATTCTTCTATCTTTTCCAGAATTCTCTAAGGACGGAGCAAGGACAGATGAATTTCCCACAAAAGTTAGTGTACAAGAAATGGCCAAAGGGAGATCCAAGCAAGTCAAAGAGCAAGATTGCCTCAAAGAGCCCTAGTACCTTTATTCTGATGAGGTCAACTTGCCCATATTTTGAAGGACAGAGATTTGTTGAACCAAGCTGCTCTGACCCCAGATTTCAAAATGAAGATAAGAGAGGGGTCTATCATGAGATTGTCTCTCAGAAGAGAATTGTGGACAGTAAGATGATAGACTAAAAAGCCCTTACTGATGCTGGCCTGAGTGCCATTCCA'
p61
aS'CTCCTCAAAGGCCATCCAGAGCTGAATCTGATGAAGAATATGTGGCAGAGGAAGATGAGCCTGAGAGCTCTAAGTGTGGTGGAGCTGAGCCAGAACATGGATCAGATCAAGAAGATAGCTCCCCAGCAGGTTCAGATGAAGAAGAACCTGAAGAAGACTTGGAAACAAAATTCTTCTATCTTTTCCAGAATTCTCTAAGGACGGAGCAAGGACAGATGAATTTCCCACAAAAGTTAGTGTACAAGAAATGGCCAAAGGGAGATCCAAGCAAGTCAAAGAGCAAGATTGCCTCAAAGAGCCCTAGTACCTTTATTCTGATGAGGTCAACTTGCCCATATTTTGAAGGACAGAGATTTGTTGAACCAAGCTGCTCTGACCCCAGATTTCAAAATGAAGATAAGAGAGGGGTCTATCATGAGATTGTCTCTCAGAAGAGAATTGTGGACAGTAAGATGATAGACTAAAAAGCCCTTACTGATGCTGGCCTGAGTGCCATTCCA'
p62
aS'CTCCTCAAAGGCCATCCAGAGCTGAATCTGATGAAGAATATGTGGCAGAGGAAGATGAGCCTGAGAGCTCTAAGTGTGGTGGAGCTGAGCCAGAACATGGATCAGATCAAGAAGATAGCTCCCCAGCAGGTTCAGATGAAGAAGAACCTGAAGAAGACTTGGAAACAAAATTCTTCTATCTTTTCCAGAATTCTCTAAGGACGGAGCAAGGACAGATGAATTTCCCACAAAAGTTAGTGTACAAGAAATGGCCAAAGGGAGATCCAAGCAAGTCAAAGAGCAAGATTGCCTCAAAGAGCCCTAGTACCTTTATTCTGATGAGGTCAACTTGCCCATATTTTGAAGGACAGAGATTTGTTGAACCAAGCTGCTCTGACCCCAGATTTCAAAATGAAGATAAGAGAGGGGTCTATCATGAGATTGTCTCTCAGAAGAGAATTGTGGACAGTAAGATGATAGACTAAAAAGCCCTTACTGATGCTGGCCTGAGTGCCATTCCA'
p63
aS'CTCCTCAAAGGCCATCCAGAGCTGAATCTGATGAAGAATATGTGGCAGAGGAAGATGAGCCTGAGAGCTCTAAGTGTGGTGGAGCTGAGCCAGAACATGGATCAGATCAAGAAGATAGCTCCCCAGCAGGTTCAGATGAAGAAGAACCTGAAGAAGACTTGGAAACAAAATTCTTCTATCTTTTCCAGAATTCTCTAAGGACGGAGCAAGGACAGATGAATTTCCCACAAAAGTTAGTGTACAAGAAATGGCCAAAGGGAGATCCAAGCAAGTCAAAGAGCAAGATTGCCTCAAAGAGCCCTAGTACCTTTATTCTGATGAGGTCAACTTGCCCATATTTTGAAGGACAGAGATTTGTTGAACCAAGCTGCTCTGACCCCAGATTTCAAAATGAAGATAAGAGAGGGGTCTATCATGAGATTGTCTCTCAGAAGAGAATTGTGGACAGTAAGATGATAGACTAAAAAGCCCTTACTGATGCTGGCCTGAGTGCCATTCCA'
p64
aS'CTCCTCAAAGGCCATCCAGAGCTGAATCTGATGAAGAATATGTGGCAGAGGAAGATGAGCCTGAGAGCTCTAAGTGTGGTGGAGCTGAGCCAGAACATGGATCAGATCAAGAAGATAGCTCCCCAGCAGGTTCAGATGAAGAAGAACCTGAAGAAGACTTGGAAACAAAATTCTTCTATCTTTTCCAGAATTCTCTAAGGACGGAGCAAGGACAGATGAATTTCCCACAAAAGTTAGTGTACAAGAAATGGCCAAAGGGAGATCCAAGCAAGTCAAAGAGCAAGATTGCCTCAAAGAGCCCTAGTACCTTTATTCTGATGAGGTCAACTTGCCCATATTTTGAAGGACAGAGATTTGTTGAACCAAGCTGCTCTGACCCCAGATTTCAAAATGAAGATAAGAGAGGGGTCTATCATGAGATTGTCTCTCAGAAGAGAATTGTGGACAGTAAGATGATAGACTAAAAAGCCCTTACTGATGCTGGCCTGAGTGCCATTCCA'
p65
aS'CTCCTCAAAGGCCATCCAGAGCTGAATCTGATGAAGAATATGTGGCAGAGGAAGATGAGCCTGAGAGCTCTAAGTGTGGTGGAGCTGAGCCAGAACATGGATCAGATCAAGAAGATAGCTCCCCAGCAGGTTCAGATGAAGAAGAACCTGAAGAAGACTTGGAAACAAAATTCTTCTATCTTTTCCAGAATTCTCTAAGGACGGAGCAAGGACAGATGAATTTCCCACAAAAGTTAGTGTACAAGAAATGGCCAAAGGGAGATCCAAGCAAGTCAAAGAGCAAGATTGCCTCAAAGAGCCCTAGTACCTTTATTCTGATGAGGTCAACTTGCCCATATTTTGAAGGACAGAGATTTGTTGAACCAAGCTGCTCTGACCCCAGATTTCAAAATGAAGATAAGAGAGGGGTCTATCATGAGATTGTCTCTCAGAAGAGAATTGTGGACAGTAAGATGATAGACTAAAAAGCCCTTACTGATGCTGGCCTGAGTGCCATTCCA'
p66
aS'CTCCTCAAAGGCCATCCAGAGCTGAATCTGATGAAGAATATGTGGCAGAGGAAGATGAGCCTGAGAGCTCTAAGTGTGGTGGAGCTGAGCCAGAACATGGATCAGATCAAGAAGATAGCTCCCCAGCAGGTTCAGATGAAGAAGAACCTGAAGAAGACTTGGAAACAAAATTCTTCTATCTTTTCCAGAATTCTCTAAGGACGGAGCAAGGACAGATGAATTTCCCACAAAAGTTAGTGTACAAGAAATGGCCAAAGGGAGATCCAAGCAAGTCAAAGAGCAAGATTGCCTCAAAGAGCCCTAGTACCTTTATTCTGATGAGGTCAACTTGCCCATATTTTGAAGGACAGAGATTTGTTGAACCAAGCTGCTCTGACCCCAGATTTCAAAATGAAGATAAGAGAGGGGTCTATCATGAGATTGTCTCTCAGAAGAGAATTGTGGACAGTAAGATGATAGACTAAAAAGCCCTTACTGATGCTGGCCTGAGTGCCATTCCA'
p67
aS'CTCCTCAAAGGCCATCCAGAGCTGAATCTGATGAAGAATATGTGGCAGAGGAAGATGAGCCTGAGAGCTCTAAGTGTGGTGGAGCTGAGCCAGAACATGGATCAGATCAAGAAGATAGCTCCCCAGCAGGTTCAGATGAAGAAGAACCTGAAGAAGACTTGGAAACAAAATTCTTCTATCTTTTCCAGAATTCTCTAAGGACGGAGCAAGGACAGATGAATTTCCCACAAAAGTTAGTGTACAAGAAATGGCCAAAGGGAGATCCAAGCAAGTCAAAGAGCAAGATTGCCTCAAAGAGCCCTAGTACCTTTATTCTGATGAGGTCAACTTGCCCATATTTTGAAGGACAGAGATTTGTTGAACCAAGCTGCTCTGACCCCAGATTTCAAAATGAAGATAAGAGAGGGGTCTATCATGAGATTGTCTCTCAGAAGAGAATTGTGGACAGTAAGATGATAGACTAAAAAGCCCTTACTGATGCTGGCCTGAGTGCCATTCCA'
p68
aS'CTCCTCAAAGGCCATCCAGAGCTGAATCTGATGAAGAATATGTGGCAGAGGAAGATGAGCCTGAGAGCTCTAAGTGTGGTGGAGCTGAGCCAGAACATGGATCAGATCAAGAAGATAGCTCCCCAGCAGGTTCAGATGAAGAAGAACCTGAAGAAGACTTGGAAACAAAATTCTTCTATCTTTTCCAGAATTCTCTAAGGACGGAGCAAGGACAGATGAATTTCCCACAAAAGTTAGTGTACAAGAAATGGCCAAAGGGAGATCCAAGCAAGTCAAAGAGCAAGATTGCCTCAAAGAGCCCTAGTACCTTTATTCTGATGAGGTCAACTTGCCCATATTTTGAAGGACAGAGATTTGTTGAACCAAGCTGCTCTGACCCCAGATTTCAAAATGAAGATAAGAGAGGGGTCTATCATGAGATTGTCTCTCAGAAGAGAATTGTGGACAGTAAGATGATAGACTAAAAAGCCCTTACTGATGCTGGCCTGAGTGCCATTCCA'
p69
aS'CTCCTCAAAGGCCATCCAGAGCTGAATCTGATGAAGAATATGTGGCAGAGGAAGATGAGCCTGAGAGCTCTAAGTGTGGTGGAGCTGAGCCAGAACATGGATCAGATCAAGAAGATAGCTCCCCAGCAGGTTCAGATGAAGAAGAACCTGAAGAAGACTTGGAAACAAAATTCTTCTATCTTTTCCAGAATTCTCTAAGGACGGAGCAAGGACAGATGAATTTCCCACAAAAGTTAGTGTACAAGAAATGGCCAAAGGGAGATCCAAGCAAGTCAAAGAGCAAGATTGCCTCAAAGAGCCCTAGTACCTTTATTCTGATGAGGTCAACTTGCCCATATTTTGAAGGACAGAGATTTGTTGAACCAAGCTGCTCTGACCCCAGATTTCAAAATGAAGATAAGAGAGGGGTCTATCATGAGATTGTCTCTCAGAAGAGAATTGTGGACAGTAAGATGATAGACTAAAAAGCCCTTACTGATGCTGGCCTGAGTGCCATTCCA'
p70
aS'CTCCTCAAAGGCCATCCAGAGCTGAATCTGATGAAGAATATGTGGCAGAGGAAGATGAGCCTGAGAGCTCTAAGTGTGGTGGAGCTGAGCCAGAACATGGATCAGATCAAGAAGATAGCTCCCCAGCAGGTTCAGATGAAGAAGAACCTGAAGAAGACTTGGAAACAAAATTCTTCTATCTTTTCCAGAATTCTCTAAGGACGGAGCAAGGACAGATGAATTTCCCACAAAAGTTAGTGTACAAGAAATGGCCAAAGGGAGATCCAAGCAAGTCAAAGAGCAAGATTGCCTCAAAGAGCCCTAGTACCTTTATTCTGATGAGGTCAACTTGCCCATATTTTGAAGGACAGAGATTTGTTGAACCAAGCTGCTCTGACCCCAGATTTCAAAATGAAGATAAGAGAGGGGTCTATCATGAGATTGTCTCTCAGAAGAGAATTGTGGACAGTAAGATGATAGACTAAAAAGCCCTTACTGATGCTGGCCTGAGTGCCATTCCA'
p71
aS'CTCCTCAAAGGCCATCCAGAGCTGAATCTGATGAAGAATATGTGGCAGAGGAAGATGAGCCTGAGAGCTCTAAGTGTGGTGGAGCTGAGCCAGAACATGGATCAGATCAAGAAGATAGCTCCCCAGCAGGTTCAGATGAAGAAGAACCTGAAGAAGACTTGGAAACAAAATTCTTCTATCTTTTCCAGAATTCTCTAAGGACGGAGCAAGGACAGATGAATTTCCCACAAAAGTTAGTGTACAAGAAATGGCCAAAGGGAGATCCAAGCAAGTCAAAGAGCAAGATTGCCTCAAAGAGCCCTAGTACCTTTATTCTGATGAGGTCAACTTGCCCATATTTTGAAGGACAGAGATTTGTTGAACCAAGCTGCTCTGACCCCAGATTTCAAAATGAAGATAAGAGAGGGGTCTATCATGAGATTGTCTCTCAGAAGAGAATTGTGGACAGTAAGATGATAGACTAAAAAGCCCTTACTGATGCTGGCCTGAGTGCCATTCCA'
p72
aS'CTCCTCAAAGGCCATCCAGAGCTGAATCTGATGAAGAATATGTGGCAGAGGAAGATGAGCCTGAGAGCTCTAAGTGTGGTGGAGCTGAGCCAGAACATGGATCAGATCAAGAAGATAGCTCCCCAGCAGGTTCAGATGAAGAAGAACCTGAAGAAGACTTGGAAACAAAATTCTTCTATCTTTTCCAGAATTCTCTAAGGACGGAGCAAGGACAGATGAATTTCCCACAAAAGTTAGTGTACAAGAAATGGCCAAAGGGAGATCCAAGCAAGTCAAAGAGCAAGATTGCCTCAAAGAGCCCTAGTACCTTTATTCTGATGAGGTCAACTTGCCCATATTTTGAAGGACAGAGATTTGTTGAACCAAGCTGCTCTGACCCCAGATTTCAAAATGAAGATAAGAGAGGGGTCTATCATGAGATTGTCTCTCAGAAGAGAATTGTGGACAGTAAGATGATAGACTAAAAAGCCCTTACTGATGCTGGCCTGAGTGCCATTCCA'
p73
aS'CTCCTCAAAGGCCATCCAGAGCTGAATCTGATGAAGAATATGTGGCAGAGGAAGATGAGCCTGAGAGCTCTAAGTGTGGTGGAGCTGAGCCAGAACATGGATCAGATCAAGAAGATAGCTCCCCAGCAGGTTCAGATGAAGAAGAACCTGAAGAAGACTTGGAAACAAAATTCTTCTATCTTTTCCAGAATTCTCTAAGGACGGAGCAAGGACAGATGAATTTCCCACAAAAGTTAGTGTACAAGAAATGGCCAAAGGGAGATCCAAGCAAGTCAAAGAGCAAGATTGCCTCAAAGAGCCCTAGTACCTTTATTCTGATGAGGTCAACTTGCCCATATTTTGAAGGACAGAGATTTGTTGAACCAAGCTGCTCTGACCCCAGATTTCAAAATGAAGATAAGAGAGGGGTCTATCATGAGATTGTCTCTCAGAAGAGAATTGTGGACAGTAAGATGATAGACTAAAAAGCCCTTACTGATGCTGGCCTGAGTGCCATTCCA'
p74
aS'CTCCTCAAAGGCCATCCAGAGCTGAATCTGATGAAGAATATGTGGCAGAGGAAGATGAGCCTGAGAGCTCTAAGTGTGGTGGAGCTGAGCCAGAACATGGATCAGATCAAGAAGATAGCTCCCCAGCAGGTTCAGATGAAGAAGAACCTGAAGAAGACTTGGAAACAAAATTCTTCTATCTTTTCCAGAATTCTCTAAGGACGGAGCAAGGACAGATGAATTTCCCACAAAAGTTAGTGTACAAGAAATGGCCAAAGGGAGATCCAAGCAAGTCAAAGAGCAAGATTGCCTCAAAGAGCCCTAGTACCTTTATTCTGATGAGGTCAACTTGCCCATATTTTGAAGGACAGAGATTTGTTGAACCAAGCTGCTCTGACCCCAGATTTCAAAATGAAGATAAGAGAGGGGTCTATCATGAGATTGTCTCTCAGAAGAGAATTGTGGACAGTAAGATGATAGACTAAAAAGCCCTTACTGATGCTGGCCTGAGTGCCATTCCA'
p75
aS'CTCCTCAAAGGCCATCCAGAGCTGAATCTGATGAAGAATATGTGGCAGAGGAAGATGAGCCTGAGAGCTCTAAGTGTGGTGGAGCTGAGCCAGAACATGGATCAGATCAAGAAGATAGCTCCCCAGCAGGTTCAGATGAAGAAGAACCTGAAGAAGACTTGGAAACAAAATTCTTCTATCTTTTCCAGAATTCTCTAAGGACGGAGCAAGGACAGATGAATTTCCCACAAAAGTTAGTGTACAAGAAATGGCCAAAGGGAGATCCAAGCAAGTCAAAGAGCAAGATTGCCTCAAAGAGCCCTAGTACCTTTATTCTGATGAGGTCAACTTGCCCATATTTTGAAGGACAGAGATTTGTTGAACCAAGCTGCTCTGACCCCAGATTTCAAAATGAAGATAAGAGAGGGGTCTATCATGAGATTGTCTCTCAGAAGAGAATTGTGGACAGTAAGATGATAGACTAAAAAGCCCTTACTGATGCTGGCCTGAGTGCCATTCCA'
p76
aS'CTCCTCAAAGGCCATCCAGAGCTGAATCTGATGAAGAATATGTGGCAGAGGAAGATGAGCCTGAGAGCTCTAAGTGTGGTGGAGCTGAGCCAGAACATGGATCAGATCAAGAAGATAGCTCCCCAGCAGGTTCAGATGAAGAAGAACCTGAAGAAGACTTGGAAACAAAATTCTTCTATCTTTTCCAGAATTCTCTAAGGACGGAGCAAGGACAGATGAATTTCCCACAAAAGTTAGTGTACAAGAAATGGCCAAAGGGAGATCCAAGCAAGTCAAAGAGCAAGATTGCCTCAAAGAGCCCTAGTACCTTTATTCTGATGAGGTCAACTTGCCCATATTTTGAAGGACAGAGATTTGTTGAACCAAGCTGCTCTGACCCCAGATTTCAAAATGAAGATAAGAGAGGGGTCTATCATGAGATTGTCTCTCAGAAGAGAATTGTGGACAGTAAGATGATAGACTAAAAAGCCCTTACTGATGCTGGCCTGAGTGCCATTCCA'
p77
aS'CTCCTCAAAGGCCATCCAGAGCTGAATCTGATGAAGAATATGTGGCAGAGGAAGATGAGCCTGAGAGCTCTAAGTGTGGTGGAGCTGAGCCAGAACATGGATCAGATCAAGAAGATAGCTCCCCAGCAGGTTCAGATGAAGAAGAACCTGAAGAAGACTTGGAAACAAAATTCTTCTATCTTTTCCAGAATTCTCTAAGGACGGAGCAAGGACAGATGAATTTCCCACAAAAGTTAGTGTACAAGAAATGGCCAAAGGGAGATCCAAGCAAGTCAAAGAGCAAGATTGCCTCAAAGAGCCCTAGTACCTTTATTCTGATGAGGTCAACTTGCCCATATTTTGAAGGACAGAGATTTGTTGAACCAAGCTGCTCTGACCCCAGATTTCAAAATGAAGATAAGAGAGGGGTCTATCATGAGATTGTCTCTCAGAAGAGAATTGTGGACAGTAAGATGATAGACTAAAAAGCCCTTACTGATGCTGGCCTGAGTGCCATTCCA'
p78
aS'CTCCTCAAAGGCCATCCAGAGCTGAATCTGATGAAGAATATGTGGCAGAGGAAGATGAGCCTGAGAGCTCTAAGTGTGGTGGAGCTGAGCCAGAACATGGATCAGATCAAGAAGATAGCTCCCCAGCAGGTTCAGATGAAGAAGAACCTGAAGAAGACTTGGAAACAAAATTCTTCTATCTTTTCCAGAATTCTCTAAGGACGGAGCAAGGACAGATGAATTTCCCACAAAAGTTAGTGTACAAGAAATGGCCAAAGGGAGATCCAAGCAAGTCAAAGAGCAAGATTGCCTCAAAGAGCCCTAGTACCTTTATTCTGATGAGGTCAACTTGCCCATATTTTGAAGGACAGAGATTTGTTGAACCAAGCTGCTCTGACCCCAGATTTCAAAATGAAGATAAGAGAGGGGTCTATCATGAGATTGTCTCTCAGAAGAGAATTGTGGACAGTAAGATGATAGACTAAAAAGCCCTTACTGATGCTGGCCTGAGTGCCATTCCA'
p79
aS'CTCCTCAAAGGCCATCCAGAGCTGAATCTGATGAAGAATATGTGGCAGAGGAAGATGAGCCTGAGAGCTCTAAGTGTGGTGGAGCTGAGCCAGAACATGGATCAGATCAAGAAGATAGCTCCCCAGCAGGTTCAGATGAAGAAGAACCTGAAGAAGACTTGGAAACAAAATTCTTCTATCTTTTCCAGAATTCTCTAAGGACGGAGCAAGGACAGATGAATTTCCCACAAAAGTTAGTGTACAAGAAATGGCCAAAGGGAGATCCAAGCAAGTCAAAGAGCAAGATTGCCTCAAAGAGCCCTAGTACCTTTATTCTGATGAGGTCAACTTGCCCATATTTTGAAGGACAGAGATTTGTTGAACCAAGCTGCTCTGACCCCAGATTTCAAAATGAAGATAAGAGAGGGGTCTATCATGAGATTGTCTCTCAGAAGAGAATTGTGGACAGTAAGATGATAGACTAAAAAGCCCTTACTGATGCTGGCCTGAGTGCCATTCCA'
p80
aS'CTCCTCAAAGGCCATCCAGAGCTGAATCTGATGAAGAATATGTGGCAGAGGAAGATGAGCCTGAGAGCTCTAAGTGTGGTGGAGCTGAGCCAGAACATGGATCAGATCAAGAAGATAGCTCCCCAGCAGGTTCAGATGAAGAAGAACCTGAAGAAGACTTGGAAACAAAATTCTTCTATCTTTTCCAGAATTCTCTAAGGACGGAGCAAGGACAGATGAATTTCCCACAAAAGTTAGTGTACAAGAAATGGCCAAAGGGAGATCCAAGCAAGTCAAAGAGCAAGATTGCCTCAAAGAGCCCTAGTACCTTTATTCTGATGAGGTCAACTTGCCCATATTTTGAAGGACAGAGATTTGTTGAACCAAGCTGCTCTGACCCCAGATTTCAAAATGAAGATAAGAGAGGGGTCTATCATGAGATTGTCTCTCAGAAGAGAATTGTGGACAGTAAGATGATAGACTAAAAAGCCCTTACTGATGCTGGCCTGAGTGCCATTCCA'
p81
aS'CTCCTCAAAGGCCATCCAGAGCTGAATCTGATGAAGAATATGTGGCAGAGGAAGATGAGCCTGAGAGCTCTAAGTGTGGTGGAGCTGAGCCAGAACATGGATCAGATCAAGAAGATAGCTCCCCAGCAGGTTCAGATGAAGAAGAACCTGAAGAAGACTTGGAAACAAAATTCTTCTATCTTTTCCAGAATTCTCTAAGGACGGAGCAAGGACAGATGAATTTCCCACAAAAGTTAGTGTACAAGAAATGGCCAAAGGGAGATCCAAGCAAGTCAAAGAGCAAGATTGCCTCAAAGAGCCCTAGTACCTTTATTCTGATGAGGTCAACTTGCCCATATTTTGAAGGACAGAGATTTGTTGAACCAAGCTGCTCTGACCCCAGATTTCAAAATGAAGATAAGAGAGGGGTCTATCATGAGATTGTCTCTCAGAAGAGAATTGTGGACAGTAAGATGATAGACTAAAAAGCCCTTACTGATGCTGGCCTGAGTGCCATTCCA'
p82
aS'CTCCTCAAAGGCCATCCAGAGCTGAATCTGATGAAGAATATGTGGCAGAGGAAGATGAGCCTGAGAGCTCTAAGTGTGGTGGAGCTGAGCCAGAACATGGATCAGATCAAGAAGATAGCTCCCCAGCAGGTTCAGATGAAGAAGAACCTGAAGAAGACTTGGAAACAAAATTCTTCTATCTTTTCCAGAATTCTCTAAGGACGGAGCAAGGACAGATGAATTTCCCACAAAAGTTAGTGTACAAGAAATGGCCAAAGGGAGATCCAAGCAAGTCAAAGAGCAAGATTGCCTCAAAGAGCCCTAGTACCTTTATTCTGATGAGGTCAACTTGCCCATATTTTGAAGGACAGAGATTTGTTGAACCAAGCTGCTCTGACCCCAGATTTCAAAATGAAGATAAGAGAGGGGTCTATCATGAGATTGTCTCTCAGAAGAGAATTGTGGACAGTAAGATGATAGACTAAAAAGCCCTTACTGATGCTGGCCTGAGTGCCATTCCA'
p83
aS'CTCCTCAAAGGCCATCCAGAGCTGAATCTGATGAAGAATATGTGGCAGAGGAAGATGAGCCTGAGAGCTCTAAGTGTGGTGGAGCTGAGCCAGAACATGGATCAGATCAAGAAGATAGCTCCCCAGCAGGTTCAGATGAAGAAGAACCTGAAGAAGACTTGGAAACAAAATTCTTCTATCTTTTCCAGAATTCTCTAAGGACGGAGCAAGGACAGATGAATTTCCCACAAAAGTTAGTGTACAAGAAATGGCCAAAGGGAGATCCAAGCAAGTCAAAGAGCAAGATTGCCTCAAAGAGCCCTAGTACCTTTATTCTGATGAGGTCAACTTGCCCATATTTTGAAGGACAGAGATTTGTTGAACCAAGCTGCTCTGACCCCAGATTTCAAAATGAAGATAAGAGAGGGGTCTATCATGAGATTGTCTCTCAGAAGAGAATTGTGGACAGTAAGATGATAGACTAAAAAGCCCTTACTGATGCTGGCCTGAGTGCCATTCCA'
p84
aS'CTCCTCAAAGGCCATCCAGAGCTGAATCTGATGAAGAATATGTGGCAGAGGAAGATGAGCCTGAGAGCTCTAAGTGTGGTGGAGCTGAGCCAGAACATGGATCAGATCAAGAAGATAGCTCCCCAGCAGGTTCAGATGAAGAAGAACCTGAAGAAGACTTGGAAACAAAATTCTTCTATCTTTTCCAGAATTCTCTAAGGACGGAGCAAGGACAGATGAATTTCCCACAAAAGTTAGTGTACAAGAAATGGCCAAAGGGAGATCCAAGCAAGTCAAAGAGCAAGATTGCCTCAAAGAGCCCTAGTACCTTTATTCTGATGAGGTCAACTTGCCCATATTTTGAAGGACAGAGATTTGTTGAACCAAGCTGCTCTGACCCCAGATTTCAAAATGAAGATAAGAGAGGGGTCTATCATGAGATTGTCTCTCAGAAGAGAATTGTGGACAGTAAGATGATAGACTAAAAAGCCCTTACTGATGCTGGCCTGAGTGCCATTCCA'
p85
aS'CTCCTCAAAGGCCATCCAGAGCTGAATCTGATGAAGAATATGTGGCAGAGGAAGATGAGCCTGAGAGCTCTAAGTGTGGTGGAGCTGAGCCAGAACATGGATCAGATCAAGAAGATAGCTCCCCAGCAGGTTCAGATGAAGAAGAACCTGAAGAAGACTTGGAAACAAAATTCTTCTATCTTTTCCAGAATTCTCTAAGGACGGAGCAAGGACAGATGAATTTCCCACAAAAGTTAGTGTACAAGAAATGGCCAAAGGGAGATCCAAGCAAGTCAAAGAGCAAGATTGCCTCAAAGAGCCCTAGTACCTTTATTCTGATGAGGTCAACTTGCCCATATTTTGAAGGACAGAGATTTGTTGAACCAAGCTGCTCTGACCCCAGATTTCAAAATGAAGATAAGAGAGGGGTCTATCATGAGATTGTCTCTCAGAAGAGAATTGTGGACAGTAAGATGATAGACTAAAAAGCCCTTACTGATGCTGGCCTGAGTGCCATTCCA'
p86
aS'CTCCTCAAAGGCCATCCAGAGCTGAATCTGATGAAGAATATGTGGCAGAGGAAGATGAGCCTGAGAGCTCTAAGTGTGGTGGAGCTGAGCCAGAACATGGATCAGATCAAGAAGATAGCTCCCCAGCAGGTTCAGATGAAGAAGAACCTGAAGAAGACTTGGAAACAAAATTCTTCTATCTTTTCCAGAATTCTCTAAGGACGGAGCAAGGACAGATGAATTTCCCACAAAAGTTAGTGTACAAGAAATGGCCAAAGGGAGATCCAAGCAAGTCAAAGAGCAAGATTGCCTCAAAGAGCCCTAGTACCTTTATTCTGATGAGGTCAACTTGCCCATATTTTGAAGGACAGAGATTTGTTGAACCAAGCTGCTCTGACCCCAGATTTCAAAATGAAGATAAGAGAGGGGTCTATCATGAGATTGTCTCTCAGAAGAGAATTGTGGACAGTAAGATGATAGACTAAAAAGCCCTTACTGATGCTGGCCTGAGTGCCATTCCA'
p87
aS'CTCCTCAAAGGCCATCCAGAGCTGAATCTGATGAAGAATATGTGGCAGAGGAAGATGAGCCTGAGAGCTCTAAGTGTGGTGGAGCTGAGCCAGAACATGGATCAGATCAAGAAGATAGCTCCCCAGCAGGTTCAGATGAAGAAGAACCTGAAGAAGACTTGGAAACAAAATTCTTCTATCTTTTCCAGAATTCTCTAAGGACGGAGCAAGGACAGATGAATTTCCCACAAAAGTTAGTGTACAAGAAATGGCCAAAGGGAGATCCAAGCAAGTCAAAGAGCAAGATTGCCTCAAAGAGCCCTAGTACCTTTATTCTGATGAGGTCAACTTGCCCATATTTTGAAGGACAGAGATTTGTTGAACCAAGCTGCTCTGACCCCAGATTTCAAAATGAAGATAAGAGAGGGGTCTATCATGAGATTGTCTCTCAGAAGAGAATTGTGGACAGTAAGATGATAGACTAAAAAGCCCTTACTGATGCTGGCCTGAGTGCCATTCCA'
p88
aS'CTCCTCAAAGGCCATCCAGAGCTGAATCTGATGAAGAATATGTGGCAGAGGAAGATGAGCCTGAGAGCTCTAAGTGTGGTGGAGCTGAGCCAGAACATGGATCAGATCAAGAAGATAGCTCCCCAGCAGGTTCAGATGAAGAAGAACCTGAAGAAGACTTGGAAACAAAATTCTTCTATCTTTTCCAGAATTCTCTAAGGACGGAGCAAGGACAGATGAATTTCCCACAAAAGTTAGTGTACAAGAAATGGCCAAAGGGAGATCCAAGCAAGTCAAAGAGCAAGATTGCCTCAAAGAGCCCTAGTACCTTTATTCTGATGAGGTCAACTTGCCCATATTTTGAAGGACAGAGATTTGTTGAACCAAGCTGCTCTGACCCCAGATTTCAAAATGAAGATAAGAGAGGGGTCTATCATGAGATTGTCTCTCAGAAGAGAATTGTGGACAGTAAGATGATAGACTAAAAAGCCCTTACTGATGCTGGCCTGAGTGCCATTCCA'
p89
aS'CTCCTCAAAGGCCATCCAGAGCTGAATCTGATGAAGAATATGTGGCAGAGGAAGATGAGCCTGAGAGCTCTAAGTGTGGTGGAGCTGAGCCAGAACATGGATCAGATCAAGAAGATAGCTCCCCAGCAGGTTCAGATGAAGAAGAACCTGAAGAAGACTTGGAAACAAAATTCTTCTATCTTTTCCAGAATTCTCTAAGGACGGAGCAAGGACAGATGAATTTCCCACAAAAGTTAGTGTACAAGAAATGGCCAAAGGGAGATCCAAGCAAGTCAAAGAGCAAGATTGCCTCAAAGAGCCCTAGTACCTTTATTCTGATGAGGTCAACTTGCCCATATTTTGAAGGACAGAGATTTGTTGAACCAAGCTGCTCTGACCCCAGATTTCAAAATGAAGATAAGAGAGGGGTCTATCATGAGATTGTCTCTCAGAAGAGAATTGTGGACAGTAAGATGATAGACTAAAAAGCCCTTACTGATGCTGGCCTGAGTGCCATTCCA'
p90
aS'CTCCTCAAAGGCCATCCAGAGCTGAATCTGATGAAGAATATGTGGCAGAGGAAGATGAGCCTGAGAGCTCTAAGTGTGGTGGAGCTGAGCCAGAACATGGATCAGATCAAGAAGATAGCTCCCCAGCAGGTTCAGATGAAGAAGAACCTGAAGAAGACTTGGAAACAAAATTCTTCTATCTTTTCCAGAATTCTCTAAGGACGGAGCAAGGACAGATGAATTTCCCACAAAAGTTAGTGTACAAGAAATGGCCAAAGGGAGATCCAAGCAAGTCAAAGAGCAAGATTGCCTCAAAGAGCCCTAGTACCTTTATTCTGATGAGGTCAACTTGCCCATATTTTGAAGGACAGAGATTTGTTGAACCAAGCTGCTCTGACCCCAGATTTCAAAATGAAGATAAGAGAGGGGTCTATCATGAGATTGTCTCTCAGAAGAGAATTGTGGACAGTAAGATGATAGACTAAAAAGCCCTTACTGATGCTGGCCTGAGTGCCATTCCA'
p91
aS'CTCCTCAAAGGCCATCCAGAGCTGAATCTGATGAAGAATATGTGGCAGAGGAAGATGAGCCTGAGAGCTCTAAGTGTGGTGGAGCTGAGCCAGAACATGGATCAGATCAAGAAGATAGCTCCCCAGCAGGTTCAGATGAAGAAGAACCTGAAGAAGACTTGGAAACAAAATTCTTCTATCTTTTCCAGAATTCTCTAAGGACGGAGCAAGGACAGATGAATTTCCCACAAAAGTTAGTGTACAAGAAATGGCCAAAGGGAGATCCAAGCAAGTCAAAGAGCAAGATTGCCTCAAAGAGCCCTAGTACCTTTATTCTGATGAGGTCAACTTGCCCATATTTTGAAGGACAGAGATTTGTTGAACCAAGCTGCTCTGACCCCAGATTTCAAAATGAAGATAAGAGAGGGGTCTATCATGAGATTGTCTCTCAGAAGAGAATTGTGGACAGTAAGATGATAGACTAAAAAGCCCTTACTGATGCTGGCCTGAGTGCCATTCCA'
p92
aS'CTCCTCAAAGGCCATCCAGAGCTGAATCTGATGAAGAATATGTGGCAGAGGAAGATGAGCCTGAGAGCTCTAAGTGTGGTGGAGCTGAGCCAGAACATGGATCAGATCAAGAAGATAGCTCCCCAGCAGGTTCAGATGAAGAAGAACCTGAAGAAGACTTGGAAACAAAATTCTTCTATCTTTTCCAGAATTCTCTAAGGACGGAGCAAGGACAGATGAATTTCCCACAAAAGTTAGTGTACAAGAAATGGCCAAAGGGAGATCCAAGCAAGTCAAAGAGCAAGATTGCCTCAAAGAGCCCTAGTACCTTTATTCTGATGAGGTCAACTTGCCCATATTTTGAAGGACAGAGATTTGTTGAACCAAGCTGCTCTGACCCCAGATTTCAAAATGAAGATAAGAGAGGGGTCTATCATGAGATTGTCTCTCAGAAGAGAATTGTGGACAGTAAGATGATAGACTAAAAAGCCCTTACTGATGCTGGCCTGAGTGCCATTCCA'
p93
aS'CTCCTCAAAGGCCATCCAGAGCTGAATCTGATGAAGAATATGTGGCAGAGGAAGATGAGCCTGAGAGCTCTAAGTGTGGTGGAGCTGAGCCAGAACATGGATCAGATCAAGAAGATAGCTCCCCAGCAGGTTCAGATGAAGAAGAACCTGAAGAAGACTTGGAAACAAAATTCTTCTATCTTTTCCAGAATTCTCTAAGGACGGAGCAAGGACAGATGAATTTCCCACAAAAGTTAGTGTACAAGAAATGGCCAAAGGGAGATCCAAGCAAGTCAAAGAGCAAGATTGCCTCAAAGAGCCCTAGTACCTTTATTCTGATGAGGTCAACTTGCCCATATTTTGAAGGACAGAGATTTGTTGAACCAAGCTGCTCTGACCCCAGATTTCAAAATGAAGATAAGAGAGGGGTCTATCATGAGATTGTCTCTCAGAAGAGAATTGTGGACAGTAAGATGATAGACTAAAAAGCCCTTACTGATGCTGGCCTGAGTGCCATTCCA'
p94
aS'CTCCTCAAAGGCCATCCAGAGCTGAATCTGATGAAGAATATGTGGCAGAGGAAGATGAGCCTGAGAGCTCTAAGTGTGGTGGAGCTGAGCCAGAACATGGATCAGATCAAGAAGATAGCTCCCCAGCAGGTTCAGATGAAGAAGAACCTGAAGAAGACTTGGAAACAAAATTCTTCTATCTTTTCCAGAATTCTCTAAGGACGGAGCAAGGACAGATGAATTTCCCACAAAAGTTAGTGTACAAGAAATGGCCAAAGGGAGATCCAAGCAAGTCAAAGAGCAAGATTGCCTCAAAGAGCCCTAGTACCTTTATTCTGATGAGGTCAACTTGCCCATATTTTGAAGGACAGAGATTTGTTGAACCAAGCTGCTCTGACCCCAGATTTCAAAATGAAGATAAGAGAGGGGTCTATCATGAGATTGTCTCTCAGAAGAGAATTGTGGACAGTAAGATGATAGACTAAAAAGCCCTTACTGATGCTGGCCTGAGTGCCATTCCA'
p95
aS'CTCCTCAAAGGCCATCCAGAGCTGAATCTGATGAAGAATATGTGGCAGAGGAAGATGAGCCTGAGAGCTCTAAGTGTGGTGGAGCTGAGCCAGAACATGGATCAGATCAAGAAGATAGCTCCCCAGCAGGTTCAGATGAAGAAGAACCTGAAGAAGACTTGGAAACAAAATTCTTCTATCTTTTCCAGAATTCTCTAAGGACGGAGCAAGGACAGATGAATTTCCCACAAAAGTTAGTGTACAAGAAATGGCCAAAGGGAGATCCAAGCAAGTCAAAGAGCAAGATTGCCTCAAAGAGCCCTAGTACCTTTATTCTGATGAGGTCAACTTGCCCATATTTTGAAGGACAGAGATTTGTTGAACCAAGCTGCTCTGACCCCAGATTTCAAAATGAAGATAAGAGAGGGGTCTATCATGAGATTGTCTCTCAGAAGAGAATTGTGGACAGTAAGATGATAGACTAAAAAGCCCTTACTGATGCTGGCCTGAGTGCCATTCCA'
p96
aS'CTCCTCAAAGGCCATCCAGAGCTGAATCTGATGAAGAATATGTGGCAGAGGAAGATGAGCCTGAGAGCTCTAAGTGTGGTGGAGCTGAGCCAGAACATGGATCAGATCAAGAAGATAGCTCCCCAGCAGGTTCAGATGAAGAAGAACCTGAAGAAGACTTGGAAACAAAATTCTTCTATCTTTTCCAGAATTCTCTAAGGACGGAGCAAGGACAGATGAATTTCCCACAAAAGTTAGTGTACAAGAAATGGCCAAAGGGAGATCCAAGCAAGTCAAAGAGCAAGATTGCCTCAAAGAGCCCTAGTACCTTTATTCTGATGAGGTCAACTTGCCCATATTTTGAAGGACAGAGATTTGTTGAACCAAGCTGCTCTGACCCCAGATTTCAAAATGAAGATAAGAGAGGGGTCTATCATGAGATTGTCTCTCAGAAGAGAATTGTGGACAGTAAGATGATAGACTAAAAAGCCCTTACTGATGCTGGCCTGAGTGCCATTCCA'
p97
aS'CTCCTCAAAGGCCATCCAGAGCTGAATCTGATGAAGAATATGTGGCAGAGGAAGATGAGCCTGAGAGCTCTAAGTGTGGTGGAGCTGAGCCAGAACATGGATCAGATCAAGAAGATAGCTCCCCAGCAGGTTCAGATGAAGAAGAACCTGAAGAAGACTTGGAAACAAAATTCTTCTATCTTTTCCAGAATTCTCTAAGGACGGAGCAAGGACAGATGAATTTCCCACAAAAGTTAGTGTACAAGAAATGGCCAAAGGGAGATCCAAGCAAGTCAAAGAGCAAGATTGCCTCAAAGAGCCCTAGTACCTTTATTCTGATGAGGTCAACTTGCCCATATTTTGAAGGACAGAGATTTGTTGAACCAAGCTGCTCTGACCCCAGATTTCAAAATGAAGATAAGAGAGGGGTCTATCATGAGATTGTCTCTCAGAAGAGAATTGTGGACAGTAAGATGATAGACTAAAAAGCCCTTACTGATGCTGGCCTGAGTGCCATTCCA'
p98
aS'CTCCTCAAAGGCCATCCAGAGCTGAATCTGATGAAGAATATGTGGCAGAGGAAGATGAGCCTGAGAGCTCTAAGTGTGGTGGAGCTGAGCCAGAACATGGATCAGATCAAGAAGATAGCTCCCCAGCAGGTTCAGATGAAGAAGAACCTGAAGAAGACTTGGAAACAAAATTCTTCTATCTTTTCCAGAATTCTCTAAGGACGGAGCAAGGACAGATGAATTTCCCACAAAAGTTAGTGTACAAGAAATGGCCAAAGGGAGATCCAAGCAAGTCAAAGAGCAAGATTGCCTCAAAGAGCCCTAGTACCTTTATTCTGATGAGGTCAACTTGCCCATATTTTGAAGGACAGAGATTTGTTGAACCAAGCTGCTCTGACCCCAGATTTCAAAATGAAGATAAGAGAGGGGTCTATCATGAGATTGTCTCTCAGAAGAGAATTGTGGACAGTAAGATGATAGACTAAAAAGCCCTTACTGATGCTGGCCTGAGTGCCATTCCA'
p99
aS'CTCCTCAAAGGCCATCCAGAGCTGAATCTGATGAAGAATATGTGGCAGAGGAAGATGAGCCTGAGAGCTCTAAGTGTGGTGGAGCTGAGCCAGAACATGGATCAGATCAAGAAGATAGCTCCCCAGCAGGTTCAGATGAAGAAGAACCTGAAGAAGACTTGGAAACAAAATTCTTCTATCTTTTCCAGAATTCTCTAAGGACGGAGCAAGGACAGATGAATTTCCCACAAAAGTTAGTGTACAAGAAATGGCCAAAGGGAGATCCAAGCAAGTCAAAGAGCAAGATTGCCTCAAAGAGCCCTAGTACCTTTATTCTGATGAGGTCAACTTGCCCATATTTTGAAGGACAGAGATTTGTTGAACCAAGCTGCTCTGACCCCAGATTTCAAAATGAAGATAAGAGAGGGGTCTATCATGAGATTGTCTCTCAGAAGAGAATTGTGGACAGTAAGATGATAGACTAAAAAGCCCTTACTGATGCTGGCCTGAGTGCCATTCCA'
p100
aS'CTCCTCAAAGGCCATCCAGAGCTGAATCTGATGAAGAATATGTGGCAGAGGAAGATGAGCCTGAGAGCTCTAAGTGTGGTGGAGCTGAGCCAGAACATGGATCAGATCAAGAAGATAGCTCCCCAGCAGGTTCAGATGAAGAAGAACCTGAAGAAGACTTGGAAACAAAATTCTTCTATCTTTTCCAGAATTCTCTAAGGACGGAGCAAGGACAGATGAATTTCCCACAAAAGTTAGTGTACAAGAAATGGCCAAAGGGAGATCCAAGCAAGTCAAAGAGCAAGATTGCCTCAAAGAGCCCTAGTACCTTTATTCTGATGAGGTCAACTTGCCCATATTTTGAAGGACAGAGATTTGTTGAACCAAGCTGCTCTGACCCCAGATTTCAAAATGAAGATAAGAGAGGGGTCTATCATGAGATTGTCTCTCAGAAGAGAATTGTGGACAGTAAGATGATAGACTAAAAAGCCCTTACTGATGCTGGCCTGAGTGCCATTCCA'
p101
aS'CTCCTCAAAGGCCATCCAGAGCTGAATCTGATGAAGAATATGTGGCAGAGGAAGATGAGCCTGAGAGCTCTAAGTGTGGTGGAGCTGAGCCAGAACATGGATCAGATCAAGAAGATAGCTCCCCAGCAGGTTCAGATGAAGAAGAACCTGAAGAAGACTTGGAAACAAAATTCTTCTATCTTTTCCAGAATTCTCTAAGGACGGAGCAAGGACAGATGAATTTCCCACAAAAGTTAGTGTACAAGAAATGGCCAAAGGGAGATCCAAGCAAGTCAAAGAGCAAGATTGCCTCAAAGAGCCCTAGTACCTTTATTCTGATGAGGTCAACTTGCCCATATTTTGAAGGACAGAGATTTGTTGAACCAAGCTGCTCTGACCCCAGATTTCAAAATGAAGATAAGAGAGGGGTCTATCATGAGATTGTCTCTCAGAAGAGAATTGTGGACAGTAAGATGATAGACTAAAAAGCCCTTACTGATGCTGGCCTGAGTGCCATTCCA'
p102
aS'CTCCTCAAAGGCCATCCAGAGCTGAATCTGATGAAGAATATGTGGCAGAGGAAGATGAGCCTGAGAGCTCTAAGTGTGGTGGAGCTGAGCCAGAACATGGATCAGATCAAGAAGATAGCTCCCCAGCAGGTTCAGATGAAGAAGAACCTGAAGAAGACTTGGAAACAAAATTCTTCTATCTTTTCCAGAATTCTCTAAGGACGGAGCAAGGACAGATGAATTTCCCACAAAAGTTAGTGTACAAGAAATGGCCAAAGGGAGATCCAAGCAAGTCAAAGAGCAAGATTGCCTCAAAGAGCCCTAGTACCTTTATTCTGATGAGGTCAACTTGCCCATATTTTGAAGGACAGAGATTTGTTGAACCAAGCTGCTCTGACCCCAGATTTCAAAATGAAGATAAGAGAGGGGTCTATCATGAGATTGTCTCTCAGAAGAGAATTGTGGACAGTAAGATGATAGACTAAAAAGCCCTTACTGATGCTGGCCTGAGTGCCATTCCA'
p103
aS'CTCCTCAAAGGCCATCCAGAGCTGAATCTGATGAAGAATATGTGGCAGAGGAAGATGAGCCTGAGAGCTCTAAGTGTGGTGGAGCTGAGCCAGAACATGGATCAGATCAAGAAGATAGCTCCCCAGCAGGTTCAGATGAAGAAGAACCTGAAGAAGACTTGGAAACAAAATTCTTCTATCTTTTCCAGAATTCTCTAAGGACGGAGCAAGGACAGATGAATTTCCCACAAAAGTTAGTGTACAAGAAATGGCCAAAGGGAGATCCAAGCAAGTCAAAGAGCAAGATTGCCTCAAAGAGCCCTAGTACCTTTATTCTGATGAGGTCAACTTGCCCATATTTTGAAGGACAGAGATTTGTTGAACCAAGCTGCTCTGACCCCAGATTTCAAAATGAAGATAAGAGAGGGGTCTATCATGAGATTGTCTCTCAGAAGAGAATTGTGGACAGTAAGATGATAGACTAAAAAGCCCTTACTGATGCTGGCCTGAGTGCCATTCCA'
p104
aS'CTCCTCAAAGGCCATCCAGAGCTGAATCTGATGAAGAATATGTGGCAGAGGAAGATGAGCCTGAGAGCTCTAAGTGTGGTGGAGCTGAGCCAGAACATGGATCAGATCAAGAAGATAGCTCCCCAGCAGGTTCAGATGAAGAAGAACCTGAAGAAGACTTGGAAACAAAATTCTTCTATCTTTTCCAGAATTCTCTAAGGACGGAGCAAGGACAGATGAATTTCCCACAAAAGTTAGTGTACAAGAAATGGCCAAAGGGAGATCCAAGCAAGTCAAAGAGCAAGATTGCCTCAAAGAGCCCTAGTACCTTTATTCTGATGAGGTCAACTTGCCCATATTTTGAAGGACAGAGATTTGTTGAACCAAGCTGCTCTGACCCCAGATTTCAAAATGAAGATAAGAGAGGGGTCTATCATGAGATTGTCTCTCAGAAGAGAATTGTGGACAGTAAGATGATAGACTAAAAAGCCCTTACTGATGCTGGCCTGAGTGCCATTCCA'
p105
aS'CTCCTCAAAGGCCATCCAGAGCTGAATCTGATGAAGAATATGTGGCAGAGGAAGATGAGCCTGAGAGCTCTAAGTGTGGTGGAGCTGAGCCAGAACATGGATCAGATCAAGAAGATAGCTCCCCAGCAGGTTCAGATGAAGAAGAACCTGAAGAAGACTTGGAAACAAAATTCTTCTATCTTTTCCAGAATTCTCTAAGGACGGAGCAAGGACAGATGAATTTCCCACAAAAGTTAGTGTACAAGAAATGGCCAAAGGGAGATCCAAGCAAGTCAAAGAGCAAGATTGCCTCAAAGAGCCCTAGTACCTTTATTCTGATGAGGTCAACTTGCCCATATTTTGAAGGACAGAGATTTGTTGAACCAAGCTGCTCTGACCCCAGATTTCAAAATGAAGATAAGAGAGGGGTCTATCATGAGATTGTCTCTCAGAAGAGAATTGTGGACAGTAAGATGATAGACTAAAAAGCCCTTACTGATGCTGGCCTGAGTGCCATTCCA'
p106
aS'CTCCTCAAAGGCCATCCAGAGCTGAATCTGATGAAGAATATGTGGCAGAGGAAGATGAGCCTGAGAGCTCTAAGTGTGGTGGAGCTGAGCCAGAACATGGATCAGATCAAGAAGATAGCTCCCCAGCAGGTTCAGATGAAGAAGAACCTGAAGAAGACTTGGAAACAAAATTCTTCTATCTTTTCCAGAATTCTCTAAGGACGGAGCAAGGACAGATGAATTTCCCACAAAAGTTAGTGTACAAGAAATGGCCAAAGGGAGATCCAAGCAAGTCAAAGAGCAAGATTGCCTCAAAGAGCCCTAGTACCTTTATTCTGATGAGGTCAACTTGCCCATATTTTGAAGGACAGAGATTTGTTGAACCAAGCTGCTCTGACCCCAGATTTCAAAATGAAGATAAGAGAGGGGTCTATCATGAGATTGTCTCTCAGAAGAGAATTGTGGACAGTAAGATGATAGACTAAAAAGCCCTTACTGATGCTGGCCTGAGTGCCATTCCA'
p107
aS'CTCCTCAAAGGCCATCCAGAGCTGAATCTGATGAAGAATATGTGGCAGAGGAAGATGAGCCTGAGAGCTCTAAGTGTGGTGGAGCTGAGCCAGAACATGGATCAGATCAAGAAGATAGCTCCCCAGCAGGTTCAGATGAAGAAGAACCTGAAGAAGACTTGGAAACAAAATTCTTCTATCTTTTCCAGAATTCTCTAAGGACGGAGCAAGGACAGATGAATTTCCCACAAAAGTTAGTGTACAAGAAATGGCCAAAGGGAGATCCAAGCAAGTCAAAGAGCAAGATTGCCTCAAAGAGCCCTAGTACCTTTATTCTGATGAGGTCAACTTGCCCATATTTTGAAGGACAGAGATTTGTTGAACCAAGCTGCTCTGACCCCAGATTTCAAAATGAAGATAAGAGAGGGGTCTATCATGAGATTGTCTCTCAGAAGAGAATTGTGGACAGTAAGATGATAGACTAAAAAGCCCTTACTGATGCTGGCCTGAGTGCCATTCCA'
p108
aS'CTCCTCAAAGGCCATCCAGAGCTGAATCTGATGAAGAATATGTGGCAGAGGAAGATGAGCCTGAGAGCTCTAAGTGTGGTGGAGCTGAGCCAGAACATGGATCAGATCAAGAAGATAGCTCCCCAGCAGGTTCAGATGAAGAAGAACCTGAAGAAGACTTGGAAACAAAATTCTTCTATCTTTTCCAGAATTCTCTAAGGACGGAGCAAGGACAGATGAATTTCCCACAAAAGTTAGTGTACAAGAAATGGCCAAAGGGAGATCCAAGCAAGTCAAAGAGCAAGATTGCCTCAAAGAGCCCTAGTACCTTTATTCTGATGAGGTCAACTTGCCCATATTTTGAAGGACAGAGATTTGTTGAACCAAGCTGCTCTGACCCCAGATTTCAAAATGAAGATAAGAGAGGGGTCTATCATGAGATTGTCTCTCAGAAGAGAATTGTGGACAGTAAGATGATAGACTAAAAAGCCCTTACTGATGCTGGCCTGAGTGCCATTCCA'
p109
aS'CTCCTCAAAGGCCATCCAGAGCTGAATCTGATGAAGAATATGTGGCAGAGGAAGATGAGCCTGAGAGCTCTAAGTGTGGTGGAGCTGAGCCAGAACATGGATCAGATCAAGAAGATAGCTCCCCAGCAGGTTCAGATGAAGAAGAACCTGAAGAAGACTTGGAAACAAAATTCTTCTATCTTTTCCAGAATTCTCTAAGGACGGAGCAAGGACAGATGAATTTCCCACAAAAGTTAGTGTACAAGAAATGGCCAAAGGGAGATCCAAGCAAGTCAAAGAGCAAGATTGCCTCAAAGAGCCCTAGTACCTTTATTCTGATGAGGTCAACTTGCCCATATTTTGAAGGACAGAGATTTGTTGAACCAAGCTGCTCTGACCCCAGATTTCAAAATGAAGATAAGAGAGGGGTCTATCATGAGATTGTCTCTCAGAAGAGAATTGTGGACAGTAAGATGATAGACTAAAAAGCCCTTACTGATGCTGGCCTGAGTGCCATTCCA'
p110
aS'CTCCTCAAAGGCCATCCAGAGCTGAATCTGATGAAGAATATGTGGCAGAGGAAGATGAGCCTGAGAGCTCTAAGTGTGGTGGAGCTGAGCCAGAACATGGATCAGATCAAGAAGATAGCTCCCCAGCAGGTTCAGATGAAGAAGAACCTGAAGAAGACTTGGAAACAAAATTCTTCTATCTTTTCCAGAATTCTCTAAGGACGGAGCAAGGACAGATGAATTTCCCACAAAAGTTAGTGTACAAGAAATGGCCAAAGGGAGATCCAAGCAAGTCAAAGAGCAAGATTGCCTCAAAGAGCCCTAGTACCTTTATTCTGATGAGGTCAACTTGCCCATATTTTGAAGGACAGAGATTTGTTGAACCAAGCTGCTCTGACCCCAGATTTCAAAATGAAGATAAGAGAGGGGTCTATCATGAGATTGTCTCTCAGAAGAGAATTGTGGACAGTAAGATGATAGACTAAAAAGCCCTTACTGATGCTGGCCTGAGTGCCATTCCA'
p111
aS'CTCCTCAAAGGCCATCCAGAGCTGAATCTGATGAAGAATATGTGGCAGAGGAAGATGAGCCTGAGAGCTCTAAGTGTGGTGGAGCTGAGCCAGAACATGGATCAGATCAAGAAGATAGCTCCCCAGCAGGTTCAGATGAAGAAGAACCTGAAGAAGACTTGGAAACAAAATTCTTCTATCTTTTCCAGAATTCTCTAAGGACGGAGCAAGGACAGATGAATTTCCCACAAAAGTTAGTGTACAAGAAATGGCCAAAGGGAGATCCAAGCAAGTCAAAGAGCAAGATTGCCTCAAAGAGCCCTAGTACCTTTATTCTGATGAGGTCAACTTGCCCATATTTTGAAGGACAGAGATTTGTTGAACCAAGCTGCTCTGACCCCAGATTTCAAAATGAAGATAAGAGAGGGGTCTATCATGAGATTGTCTCTCAGAAGAGAATTGTGGACAGTAAGATGATAGACTAAAAAGCCCTTACTGATGCTGGCCTGAGTGCCATTCCA'
p112
aS'CTCCTCAAAGGCCATCCAGAGCTGAATCTGATGAAGAATATGTGGCAGAGGAAGATGAGCCTGAGAGCTCTAAGTGTGGTGGAGCTGAGCCAGAACATGGATCAGATCAAGAAGATAGCTCCCCAGCAGGTTCAGATGAAGAAGAACCTGAAGAAGACTTGGAAACAAAATTCTTCTATCTTTTCCAGAATTCTCTAAGGACGGAGCAAGGACAGATGAATTTCCCACAAAAGTTAGTGTACAAGAAATGGCCAAAGGGAGATCCAAGCAAGTCAAAGAGCAAGATTGCCTCAAAGAGCCCTAGTACCTTTATTCTGATGAGGTCAACTTGCCCATATTTTGAAGGACAGAGATTTGTTGAACCAAGCTGCTCTGACCCCAGATTTCAAAATGAAGATAAGAGAGGGGTCTATCATGAGATTGTCTCTCAGAAGAGAATTGTGGACAGTAAGATGATAGACTAAAAAGCCCTTACTGATGCTGGCCTGAGTGCCATTCCA'
p113
aS'CTCCTCAAAGGCCATCCAGAGCTGAATCTGATGAAGAATATGTGGCAGAGGAAGATGAGCCTGAGAGCTCTAAGTGTGGTGGAGCTGAGCCAGAACATGGATCAGATCAAGAAGATAGCTCCCCAGCAGGTTCAGATGAAGAAGAACCTGAAGAAGACTTGGAAACAAAATTCTTCTATCTTTTCCAGAATTCTCTAAGGACGGAGCAAGGACAGATGAATTTCCCACAAAAGTTAGTGTACAAGAAATGGCCAAAGGGAGATCCAAGCAAGTCAAAGAGCAAGATTGCCTCAAAGAGCCCTAGTACCTTTATTCTGATGAGGTCAACTTGCCCATATTTTGAAGGACAGAGATTTGTTGAACCAAGCTGCTCTGACCCCAGATTTCAAAATGAAGATAAGAGAGGGGTCTATCATGAGATTGTCTCTCAGAAGAGAATTGTGGACAGTAAGATGATAGACTAAAAAGCCCTTACTGATGCTGGCCTGAGTGCCATTCCA'
p114
aS'CTCCTCAAAGGCCATCCAGAGCTGAATCTGATGAAGAATATGTGGCAGAGGAAGATGAGCCTGAGAGCTCTAAGTGTGGTGGAGCTGAGCCAGAACATGGATCAGATCAAGAAGATAGCTCCCCAGCAGGTTCAGATGAAGAAGAACCTGAAGAAGACTTGGAAACAAAATTCTTCTATCTTTTCCAGAATTCTCTAAGGACGGAGCAAGGACAGATGAATTTCCCACAAAAGTTAGTGTACAAGAAATGGCCAAAGGGAGATCCAAGCAAGTCAAAGAGCAAGATTGCCTCAAAGAGCCCTAGTACCTTTATTCTGATGAGGTCAACTTGCCCATATTTTGAAGGACAGAGATTTGTTGAACCAAGCTGCTCTGACCCCAGATTTCAAAATGAAGATAAGAGAGGGGTCTATCATGAGATTGTCTCTCAGAAGAGAATTGTGGACAGTAAGATGATAGACTAAAAAGCCCTTACTGATGCTGGCCTGAGTGCCATTCCA'
p115
aS'CTCCTCAAAGGCCATCCAGAGCTGAATCTGATGAAGAATATGTGGCAGAGGAAGATGAGCCTGAGAGCTCTAAGTGTGGTGGAGCTGAGCCAGAACATGGATCAGATCAAGAAGATAGCTCCCCAGCAGGTTCAGATGAAGAAGAACCTGAAGAAGACTTGGAAACAAAATTCTTCTATCTTTTCCAGAATTCTCTAAGGACGGAGCAAGGACAGATGAATTTCCCACAAAAGTTAGTGTACAAGAAATGGCCAAAGGGAGATCCAAGCAAGTCAAAGAGCAAGATTGCCTCAAAGAGCCCTAGTACCTTTATTCTGATGAGGTCAACTTGCCCATATTTTGAAGGACAGAGATTTGTTGAACCAAGCTGCTCTGACCCCAGATTTCAAAATGAAGATAAGAGAGGGGTCTATCATGAGATTGTCTCTCAGAAGAGAATTGTGGACAGTAAGATGATAGACTAAAAAGCCCTTACTGATGCTGGCCTGAGTGCCATTCCA'
p116
aS'CTCCTCAAAGGCCATCCAGAGCTGAATCTGATGAAGAATATGTGGCAGAGGAAGATGAGCCTGAGAGCTCTAAGTGTGGTGGAGCTGAGCCAGAACATGGATCAGATCAAGAAGATAGCTCCCCAGCAGGTTCAGATGAAGAAGAACCTGAAGAAGACTTGGAAACAAAATTCTTCTATCTTTTCCAGAATTCTCTAAGGACGGAGCAAGGACAGATGAATTTCCCACAAAAGTTAGTGTACAAGAAATGGCCAAAGGGAGATCCAAGCAAGTCAAAGAGCAAGATTGCCTCAAAGAGCCCTAGTACCTTTATTCTGATGAGGTCAACTTGCCCATATTTTGAAGGACAGAGATTTGTTGAACCAAGCTGCTCTGACCCCAGATTTCAAAATGAAGATAAGAGAGGGGTCTATCATGAGATTGTCTCTCAGAAGAGAATTGTGGACAGTAAGATGATAGACTAAAAAGCCCTTACTGATGCTGGCCTGAGTGCCATTCCA'
p117
aS'CTCCTCAAAGGCCATCCAGAGCTGAATCTGATGAAGAATATGTGGCAGAGGAAGATGAGCCTGAGAGCTCTAAGTGTGGTGGAGCTGAGCCAGAACATGGATCAGATCAAGAAGATAGCTCCCCAGCAGGTTCAGATGAAGAAGAACCTGAAGAAGACTTGGAAACAAAATTCTTCTATCTTTTCCAGAATTCTCTAAGGACGGAGCAAGGACAGATGAATTTCCCACAAAAGTTAGTGTACAAGAAATGGCCAAAGGGAGATCCAAGCAAGTCAAAGAGCAAGATTGCCTCAAAGAGCCCTAGTACCTTTATTCTGATGAGGTCAACTTGCCCATATTTTGAAGGACAGAGATTTGTTGAACCAAGCTGCTCTGACCCCAGATTTCAAAATGAAGATAAGAGAGGGGTCTATCATGAGATTGTCTCTCAGAAGAGAATTGTGGACAGTAAGATGATAGACTAAAAAGCCCTTACTGATGCTGGCCTGAGTGCCATTCCA'
p118
aS'CTCCTCAAAGGCCATCCAGAGCTGAATCTGATGAAGAATATGTGGCAGAGGAAGATGAGCCTGAGAGCTCTAAGTGTGGTGGAGCTGAGCCAGAACATGGATCAGATCAAGAAGATAGCTCCCCAGCAGGTTCAGATGAAGAAGAACCTGAAGAAGACTTGGAAACAAAATTCTTCTATCTTTTCCAGAATTCTCTAAGGACGGAGCAAGGACAGATGAATTTCCCACAAAAGTTAGTGTACAAGAAATGGCCAAAGGGAGATCCAAGCAAGTCAAAGAGCAAGATTGCCTCAAAGAGCCCTAGTACCTTTATTCTGATGAGGTCAACTTGCCCATATTTTGAAGGACAGAGATTTGTTGAACCAAGCTGCTCTGACCCCAGATTTCAAAATGAAGATAAGAGAGGGGTCTATCATGAGATTGTCTCTCAGAAGAGAATTGTGGACAGTAAGATGATAGACTAAAAAGCCCTTACTGATGCTGGCCTGAGTGCCATTCCA'
p119
aS'CTCCTCAAAGGCCATCCAGAGCTGAATCTGATGAAGAATATGTGGCAGAGGAAGATGAGCCTGAGAGCTCTAAGTGTGGTGGAGCTGAGCCAGAACATGGATCAGATCAAGAAGATAGCTCCCCAGCAGGTTCAGATGAAGAAGAACCTGAAGAAGACTTGGAAACAAAATTCTTCTATCTTTTCCAGAATTCTCTAAGGACGGAGCAAGGACAGATGAATTTCCCACAAAAGTTAGTGTACAAGAAATGGCCAAAGGGAGATCCAAGCAAGTCAAAGAGCAAGATTGCCTCAAAGAGCCCTAGTACCTTTATTCTGATGAGGTCAACTTGCCCATATTTTGAAGGACAGAGATTTGTTGAACCAAGCTGCTCTGACCCCAGATTTCAAAATGAAGATAAGAGAGGGGTCTATCATGAGATTGTCTCTCAGAAGAGAATTGTGGACAGTAAGATGATAGACTAAAAAGCCCTTACTGATGCTGGCCTGAGTGCCATTCCA'
p120
aS'CTCCTCAAAGGCCATCCAGAGCTGAATCTGATGAAGAATATGTGGCAGAGGAAGATGAGCCTGAGAGCTCTAAGTGTGGTGGAGCTGAGCCAGAACATGGATCAGATCAAGAAGATAGCTCCCCAGCAGGTTCAGATGAAGAAGAACCTGAAGAAGACTTGGAAACAAAATTCTTCTATCTTTTCCAGAATTCTCTAAGGACGGAGCAAGGACAGATGAATTTCCCACAAAAGTTAGTGTACAAGAAATGGCCAAAGGGAGATCCAAGCAAGTCAAAGAGCAAGATTGCCTCAAAGAGCCCTAGTACCTTTATTCTGATGAGGTCAACTTGCCCATATTTTGAAGGACAGAGATTTGTTGAACCAAGCTGCTCTGACCCCAGATTTCAAAATGAAGATAAGAGAGGGGTCTATCATGAGATTGTCTCTCAGAAGAGAATTGTGGACAGTAAGATGATAGACTAAAAAGCCCTTACTGATGCTGGCCTGAGTGCCATTCCA'
p121
aS'CTCCTCAAAGGCCATCCAGAGCTGAATCTGATGAAGAATATGTGGCAGAGGAAGATGAGCCTGAGAGCTCTAAGTGTGGTGGAGCTGAGCCAGAACATGGATCAGATCAAGAAGATAGCTCCCCAGCAGGTTCAGATGAAGAAGAACCTGAAGAAGACTTGGAAACAAAATTCTTCTATCTTTTCCAGAATTCTCTAAGGACGGAGCAAGGACAGATGAATTTCCCACAAAAGTTAGTGTACAAGAAATGGCCAAAGGGAGATCCAAGCAAGTCAAAGAGCAAGATTGCCTCAAAGAGCCCTAGTACCTTTATTCTGATGAGGTCAACTTGCCCATATTTTGAAGGACAGAGATTTGTTGAACCAAGCTGCTCTGACCCCAGATTTCAAAATGAAGATAAGAGAGGGGTCTATCATGAGATTGTCTCTCAGAAGAGAATTGTGGACAGTAAGATGATAGACTAAAAAGCCCTTACTGATGCTGGCCTGAGTGCCATTCCA'
p122
aS'CTCCTCAAAGGCCATCCAGAGCTGAATCTGATGAAGAATATGTGGCAGAGGAAGATGAGCCTGAGAGCTCTAAGTGTGGTGGAGCTGAGCCAGAACATGGATCAGATCAAGAAGATAGCTCCCCAGCAGGTTCAGATGAAGAAGAACCTGAAGAAGACTTGGAAACAAAATTCTTCTATCTTTTCCAGAATTCTCTAAGGACGGAGCAAGGACAGATGAATTTCCCACAAAAGTTAGTGTACAAGAAATGGCCAAAGGGAGATCCAAGCAAGTCAAAGAGCAAGATTGCCTCAAAGAGCCCTAGTACCTTTATTCTGATGAGGTCAACTTGCCCATATTTTGAAGGACAGAGATTTGTTGAACCAAGCTGCTCTGACCCCAGATTTCAAAATGAAGATAAGAGAGGGGTCTATCATGAGATTGTCTCTCAGAAGAGAATTGTGGACAGTAAGATGATAGACTAAAAAGCCCTTACTGATGCTGGCCTGAGTGCCATTCCA'
p123
aS'CTCCTCAAAGGCCATCCAGAGCTGAATCTGATGAAGAATATGTGGCAGAGGAAGATGAGCCTGAGAGCTCTAAGTGTGGTGGAGCTGAGCCAGAACATGGATCAGATCAAGAAGATAGCTCCCCAGCAGGTTCAGATGAAGAAGAACCTGAAGAAGACTTGGAAACAAAATTCTTCTATCTTTTCCAGAATTCTCTAAGGACGGAGCAAGGACAGATGAATTTCCCACAAAAGTTAGTGTACAAGAAATGGCCAAAGGGAGATCCAAGCAAGTCAAAGAGCAAGATTGCCTCAAAGAGCCCTAGTACCTTTATTCTGATGAGGTCAACTTGCCCATATTTTGAAGGACAGAGATTTGTTGAACCAAGCTGCTCTGACCCCAGATTTCAAAATGAAGATAAGAGAGGGGTCTATCATGAGATTGTCTCTCAGAAGAGAATTGTGGACAGTAAGATGATAGACTAAAAAGCCCTTACTGATGCTGGCCTGAGTGCCATTCCA'
p124
aS'CTCCTCAAAGGCCATCCAGAGCTGAATCTGATGAAGAATATGTGGCAGAGGAAGATGAGCCTGAGAGCTCTAAGTGTGGTGGAGCTGAGCCAGAACATGGATCAGATCAAGAAGATAGCTCCCCAGCAGGTTCAGATGAAGAAGAACCTGAAGAAGACTTGGAAACAAAATTCTTCTATCTTTTCCAGAATTCTCTAAGGACGGAGCAAGGACAGATGAATTTCCCACAAAAGTTAGTGTACAAGAAATGGCCAAAGGGAGATCCAAGCAAGTCAAAGAGCAAGATTGCCTCAAAGAGCCCTAGTACCTTTATTCTGATGAGGTCAACTTGCCCATATTTTGAAGGACAGAGATTTGTTGAACCAAGCTGCTCTGACCCCAGATTTCAAAATGAAGATAAGAGAGGGGTCTATCATGAGATTGTCTCTCAGAAGAGAATTGTGGACAGTAAGATGATAGACTAAAAAGCCCTTACTGATGCTGGCCTGAGTGCCATTCCA'
p125
aS'CTCCTCAAAGGCCATCCAGAGCTGAATCTGATGAAGAATATGTGGCAGAGGAAGATGAGCCTGAGAGCTCTAAGTGTGGTGGAGCTGAGCCAGAACATGGATCAGATCAAGAAGATAGCTCCCCAGCAGGTTCAGATGAAGAAGAACCTGAAGAAGACTTGGAAACAAAATTCTTCTATCTTTTCCAGAATTCTCTAAGGACGGAGCAAGGACAGATGAATTTCCCACAAAAGTTAGTGTACAAGAAATGGCCAAAGGGAGATCCAAGCAAGTCAAAGAGCAAGATTGCCTCAAAGAGCCCTAGTACCTTTATTCTGATGAGGTCAACTTGCCCATATTTTGAAGGACAGAGATTTGTTGAACCAAGCTGCTCTGACCCCAGATTTCAAAATGAAGATAAGAGAGGGGTCTATCATGAGATTGTCTCTCAGAAGAGAATTGTGGACAGTAAGATGATAGACTAAAAAGCCCTTACTGATGCTGGCCTGAGTGCCATTCCA'
p126
aS'CTCCTCAAAGGCCATCCAGAGCTGAATCTGATGAAGAATATGTGGCAGAGGAAGATGAGCCTGAGAGCTCTAAGTGTGGTGGAGCTGAGCCAGAACATGGATCAGATCAAGAAGATAGCTCCCCAGCAGGTTCAGATGAAGAAGAACCTGAAGAAGACTTGGAAACAAAATTCTTCTATCTTTTCCAGAATTCTCTAAGGACGGAGCAAGGACAGATGAATTTCCCACAAAAGTTAGTGTACAAGAAATGGCCAAAGGGAGATCCAAGCAAGTCAAAGAGCAAGATTGCCTCAAAGAGCCCTAGTACCTTTATTCTGATGAGGTCAACTTGCCCATATTTTGAAGGACAGAGATTTGTTGAACCAAGCTGCTCTGACCCCAGATTTCAAAATGAAGATAAGAGAGGGGTCTATCATGAGATTGTCTCTCAGAAGAGAATTGTGGACAGTAAGATGATAGACTAAAAAGCCCTTACTGATGCTGGCCTGAGTGCCATTCCA'
p127
aS'CTCCTCAAAGGCCATCCAGAGCTGAATCTGATGAAGAATATGTGGCAGAGGAAGATGAGCCTGAGAGCTCTAAGTGTGGTGGAGCTGAGCCAGAACATGGATCAGATCAAGAAGATAGCTCCCCAGCAGGTTCAGATGAAGAAGAACCTGAAGAAGACTTGGAAACAAAATTCTTCTATCTTTTCCAGAATTCTCTAAGGACGGAGCAAGGACAGATGAATTTCCCACAAAAGTTAGTGTACAAGAAATGGCCAAAGGGAGATCCAAGCAAGTCAAAGAGCAAGATTGCCTCAAAGAGCCCTAGTACCTTTATTCTGATGAGGTCAACTTGCCCATATTTTGAAGGACAGAGATTTGTTGAACCAAGCTGCTCTGACCCCAGATTTCAAAATGAAGATAAGAGAGGGGTCTATCATGAGATTGTCTCTCAGAAGAGAATTGTGGACAGTAAGATGATAGACTAAAAAGCCCTTACTGATGCTGGCCTGAGTGCCATTCCA'
p128
aS'CTCCTCAAAGGCCATCCAGAGCTGAATCTGATGAAGAATATGTGGCAGAGGAAGATGAGCCTGAGAGCTCTAAGTGTGGTGGAGCTGAGCCAGAACATGGATCAGATCAAGAAGATAGCTCCCCAGCAGGTTCAGATGAAGAAGAACCTGAAGAAGACTTGGAAACAAAATTCTTCTATCTTTTCCAGAATTCTCTAAGGACGGAGCAAGGACAGATGAATTTCCCACAAAAGTTAGTGTACAAGAAATGGCCAAAGGGAGATCCAAGCAAGTCAAAGAGCAAGATTGCCTCAAAGAGCCCTAGTACCTTTATTCTGATGAGGTCAACTTGCCCATATTTTGAAGGACAGAGATTTGTTGAACCAAGCTGCTCTGACCCCAGATTTCAAAATGAAGATAAGAGAGGGGTCTATCATGAGATTGTCTCTCAGAAGAGAATTGTGGACAGTAAGATGATAGACTAAAAAGCCCTTACTGATGCTGGCCTGAGTGCCATTCCA'
p129
aS'CTCCTCAAAGGCCATCCAGAGCTGAATCTGATGAAGAATATGTGGCAGAGGAAGATGAGCCTGAGAGCTCTAAGTGTGGTGGAGCTGAGCCAGAACATGGATCAGATCAAGAAGATAGCTCCCCAGCAGGTTCAGATGAAGAAGAACCTGAAGAAGACTTGGAAACAAAATTCTTCTATCTTTTCCAGAATTCTCTAAGGACGGAGCAAGGACAGATGAATTTCCCACAAAAGTTAGTGTACAAGAAATGGCCAAAGGGAGATCCAAGCAAGTCAAAGAGCAAGATTGCCTCAAAGAGCCCTAGTACCTTTATTCTGATGAGGTCAACTTGCCCATATTTTGAAGGACAGAGATTTGTTGAACCAAGCTGCTCTGACCCCAGATTTCAAAATGAAGATAAGAGAGGGGTCTATCATGAGATTGTCTCTCAGAAGAGAATTGTGGACAGTAAGATGATAGACTAAAAAGCCCTTACTGATGCTGGCCTGAGTGCCATTCCA'
p130
aS'CTCCTCAAAGGCCATCCAGAGCTGAATCTGATGAAGAATATGTGGCAGAGGAAGATGAGCCTGAGAGCTCTAAGTGTGGTGGAGCTGAGCCAGAACATGGATCAGATCAAGAAGATAGCTCCCCAGCAGGTTCAGATGAAGAAGAACCTGAAGAAGACTTGGAAACAAAATTCTTCTATCTTTTCCAGAATTCTCTAAGGACGGAGCAAGGACAGATGAATTTCCCACAAAAGTTAGTGTACAAGAAATGGCCAAAGGGAGATCCAAGCAAGTCAAAGAGCAAGATTGCCTCAAAGAGCCCTAGTACCTTTATTCTGATGAGGTCAACTTGCCCATATTTTGAAGGACAGAGATTTGTTGAACCAAGCTGCTCTGACCCCAGATTTCAAAATGAAGATAAGAGAGGGGTCTATCATGAGATTGTCTCTCAGAAGAGAATTGTGGACAGTAAGATGATAGACTAAAAAGCCCTTACTGATGCTGGCCTGAGTGCCATTCCA'
p131
aS'CTCCTCAAAGGCCATCCAGAGCTGAATCTGATGAAGAATATGTGGCAGAGGAAGATGAGCCTGAGAGCTCTAAGTGTGGTGGAGCTGAGCCAGAACATGGATCAGATCAAGAAGATAGCTCCCCAGCAGGTTCAGATGAAGAAGAACCTGAAGAAGACTTGGAAACAAAATTCTTCTATCTTTTCCAGAATTCTCTAAGGACGGAGCAAGGACAGATGAATTTCCCACAAAAGTTAGTGTACAAGAAATGGCCAAAGGGAGATCCAAGCAAGTCAAAGAGCAAGATTGCCTCAAAGAGCCCTAGTACCTTTATTCTGATGAGGTCAACTTGCCCATATTTTGAAGGACAGAGATTTGTTGAACCAAGCTGCTCTGACCCCAGATTTCAAAATGAAGATAAGAGAGGGGTCTATCATGAGATTGTCTCTCAGAAGAGAATTGTGGACAGTAAGATGATAGACTAAAAAGCCCTTACTGATGCTGGCCTGAGTGCCATTCCA'
p132
aS'CTCCTCAAAGGCCATCCAGAGCTGAATCTGATGAAGAATATGTGGCAGAGGAAGATGAGCCTGAGAGCTCTAAGTGTGGTGGAGCTGAGCCAGAACATGGATCAGATCAAGAAGATAGCTCCCCAGCAGGTTCAGATGAAGAAGAACCTGAAGAAGACTTGGAAACAAAATTCTTCTATCTTTTCCAGAATTCTCTAAGGACGGAGCAAGGACAGATGAATTTCCCACAAAAGTTAGTGTACAAGAAATGGCCAAAGGGAGATCCAAGCAAGTCAAAGAGCAAGATTGCCTCAAAGAGCCCTAGTACCTTTATTCTGATGAGGTCAACTTGCCCATATTTTGAAGGACAGAGATTTGTTGAACCAAGCTGCTCTGACCCCAGATTTCAAAATGAAGATAAGAGAGGGGTCTATCATGAGATTGTCTCTCAGAAGAGAATTGTGGACAGTAAGATGATAGACTAAAAAGCCCTTACTGATGCTGGCCTGAGTGCCATTCCA'
p133
aS'CTCCTCAAAGGCCATCCAGAGCTGAATCTGATGAAGAATATGTGGCAGAGGAAGATGAGCCTGAGAGCTCTAAGTGTGGTGGAGCTGAGCCAGAACATGGATCAGATCAAGAAGATAGCTCCCCAGCAGGTTCAGATGAAGAAGAACCTGAAGAAGACTTGGAAACAAAATTCTTCTATCTTTTCCAGAATTCTCTAAGGACGGAGCAAGGACAGATGAATTTCCCACAAAAGTTAGTGTACAAGAAATGGCCAAAGGGAGATCCAAGCAAGTCAAAGAGCAAGATTGCCTCAAAGAGCCCTAGTACCTTTATTCTGATGAGGTCAACTTGCCCATATTTTGAAGGACAGAGATTTGTTGAACCAAGCTGCTCTGACCCCAGATTTCAAAATGAAGATAAGAGAGGGGTCTATCATGAGATTGTCTCTCAGAAGAGAATTGTGGACAGTAAGATGATAGACTAAAAAGCCCTTACTGATGCTGGCCTGAGTGCCATTCCA'
p134
aS'CTCCTCAAAGGCCATCCAGAGCTGAATCTGATGAAGAATATGTGGCAGAGGAAGATGAGCCTGAGAGCTCTAAGTGTGGTGGAGCTGAGCCAGAACATGGATCAGATCAAGAAGATAGCTCCCCAGCAGGTTCAGATGAAGAAGAACCTGAAGAAGACTTGGAAACAAAATTCTTCTATCTTTTCCAGAATTCTCTAAGGACGGAGCAAGGACAGATGAATTTCCCACAAAAGTTAGTGTACAAGAAATGGCCAAAGGGAGATCCAAGCAAGTCAAAGAGCAAGATTGCCTCAAAGAGCCCTAGTACCTTTATTCTGATGAGGTCAACTTGCCCATATTTTGAAGGACAGAGATTTGTTGAACCAAGCTGCTCTGACCCCAGATTTCAAAATGAAGATAAGAGAGGGGTCTATCATGAGATTGTCTCTCAGAAGAGAATTGTGGACAGTAAGATGATAGACTAAAAAGCCCTTACTGATGCTGGCCTGAGTGCCATTCCA'
p135
aS'CTCCTCAAAGGCCATCCAGAGCTGAATCTGATGAAGAATATGTGGCAGAGGAAGATGAGCCTGAGAGCTCTAAGTGTGGTGGAGCTGAGCCAGAACATGGATCAGATCAAGAAGATAGCTCCCCAGCAGGTTCAGATGAAGAAGAACCTGAAGAAGACTTGGAAACAAAATTCTTCTATCTTTTCCAGAATTCTCTAAGGACGGAGCAAGGACAGATGAATTTCCCACAAAAGTTAGTGTACAAGAAATGGCCAAAGGGAGATCCAAGCAAGTCAAAGAGCAAGATTGCCTCAAAGAGCCCTAGTACCTTTATTCTGATGAGGTCAACTTGCCCATATTTTGAAGGACAGAGATTTGTTGAACCAAGCTGCTCTGACCCCAGATTTCAAAATGAAGATAAGAGAGGGGTCTATCATGAGATTGTCTCTCAGAAGAGAATTGTGGACAGTAAGATGATAGACTAAAAAGCCCTTACTGATGCTGGCCTGAGTGCCATTCCA'
p136
aS'CTCCTCAAAGGCCATCCAGAGCTGAATCTGATGAAGAATATGTGGCAGAGGAAGATGAGCCTGAGAGCTCTAAGTGTGGTGGAGCTGAGCCAGAACATGGATCAGATCAAGAAGATAGCTCCCCAGCAGGTTCAGATGAAGAAGAACCTGAAGAAGACTTGGAAACAAAATTCTTCTATCTTTTCCAGAATTCTCTAAGGACGGAGCAAGGACAGATGAATTTCCCACAAAAGTTAGTGTACAAGAAATGGCCAAAGGGAGATCCAAGCAAGTCAAAGAGCAAGATTGCCTCAAAGAGCCCTAGTACCTTTATTCTGATGAGGTCAACTTGCCCATATTTTGAAGGACAGAGATTTGTTGAACCAAGCTGCTCTGACCCCAGATTTCAAAATGAAGATAAGAGAGGGGTCTATCATGAGATTGTCTCTCAGAAGAGAATTGTGGACAGTAAGATGATAGACTAAAAAGCCCTTACTGATGCTGGCCTGAGTGCCATTCCA'
p137
aS'CTCCTCAAAGGCCATCCAGAGCTGAATCTGATGAAGAATATGTGGCAGAGGAAGATGAGCCTGAGAGCTCTAAGTGTGGTGGAGCTGAGCCAGAACATGGATCAGATCAAGAAGATAGCTCCCCAGCAGGTTCAGATGAAGAAGAACCTGAAGAAGACTTGGAAACAAAATTCTTCTATCTTTTCCAGAATTCTCTAAGGACGGAGCAAGGACAGATGAATTTCCCACAAAAGTTAGTGTACAAGAAATGGCCAAAGGGAGATCCAAGCAAGTCAAAGAGCAAGATTGCCTCAAAGAGCCCTAGTACCTTTATTCTGATGAGGTCAACTTGCCCATATTTTGAAGGACAGAGATTTGTTGAACCAAGCTGCTCTGACCCCAGATTTCAAAATGAAGATAAGAGAGGGGTCTATCATGAGATTGTCTCTCAGAAGAGAATTGTGGACAGTAAGATGATAGACTAAAAAGCCCTTACTGATGCTGGCCTGAGTGCCATTCCA'
p138
aS'CTCCTCAAAGGCCATCCAGAGCTGAATCTGATGAAGAATATGTGGCAGAGGAAGATGAGCCTGAGAGCTCTAAGTGTGGTGGAGCTGAGCCAGAACATGGATCAGATCAAGAAGATAGCTCCCCAGCAGGTTCAGATGAAGAAGAACCTGAAGAAGACTTGGAAACAAAATTCTTCTATCTTTTCCAGAATTCTCTAAGGACGGAGCAAGGACAGATGAATTTCCCACAAAAGTTAGTGTACAAGAAATGGCCAAAGGGAGATCCAAGCAAGTCAAAGAGCAAGATTGCCTCAAAGAGCCCTAGTACCTTTATTCTGATGAGGTCAACTTGCCCATATTTTGAAGGACAGAGATTTGTTGAACCAAGCTGCTCTGACCCCAGATTTCAAAATGAAGATAAGAGAGGGGTCTATCATGAGATTGTCTCTCAGAAGAGAATTGTGGACAGTAAGATGATAGACTAAAAAGCCCTTACTGATGCTGGCCTGAGTGCCATTCCA'
p139
aS'CTCCTCAAAGGCCATCCAGAGCTGAATCTGATGAAGAATATGTGGCAGAGGAAGATGAGCCTGAGAGCTCTAAGTGTGGTGGAGCTGAGCCAGAACATGGATCAGATCAAGAAGATAGCTCCCCAGCAGGTTCAGATGAAGAAGAACCTGAAGAAGACTTGGAAACAAAATTCTTCTATCTTTTCCAGAATTCTCTAAGGACGGAGCAAGGACAGATGAATTTCCCACAAAAGTTAGTGTACAAGAAATGGCCAAAGGGAGATCCAAGCAAGTCAAAGAGCAAGATTGCCTCAAAGAGCCCTAGTACCTTTATTCTGATGAGGTCAACTTGCCCATATTTTGAAGGACAGAGATTTGTTGAACCAAGCTGCTCTGACCCCAGATTTCAAAATGAAGATAAGAGAGGGGTCTATCATGAGATTGTCTCTCAGAAGAGAATTGTGGACAGTAAGATGATAGACTAAAAAGCCCTTACTGATGCTGGCCTGAGTGCCATTCCA'
p140
a.